; ModuleID = 'gomodule'
source_filename = "gomodule"
target datalayout = "e-m:e-i64:64-f80:128-n8:16:32:64-S128"
target triple = "x86_64-unknown-linux-gnu"

module asm "\09.section \22.go_export\22,\22e\22,@progbits"
module asm "\09.ascii \22v2;\5Cn\22"
module asm "\09.ascii \22package \22"
module asm "\09.ascii \22out\22"
module asm "\09.ascii \22;\5Cn\22"
module asm "\09.ascii \22pkgpath \22"
module asm "\09.ascii \22command-line-arguments\22"
module asm "\09.ascii \22;\5Cn\22"
module asm "\09.ascii \22import \22"
module asm "\09.ascii \22fmt\22"
module asm "\09.ascii \22 \22"
module asm "\09.ascii \22fmt\22"
module asm "\09.ascii \22 \5C\22\22"
module asm "\09.ascii \22fmt\22"
module asm "\09.ascii \22\5C\22;\5Cn\22"
module asm "\09.ascii \22import \22"
module asm "\09.ascii \22color\22"
module asm "\09.ascii \22 \22"
module asm "\09.ascii \22github.com/spolu/warp/vendor/github.com/fatih/color\22"
module asm "\09.ascii \22 \5C\22\22"
module asm "\09.ascii \22github.com/fatih/color\22"
module asm "\09.ascii \22\5C\22;\5Cn\22"
module asm "\09.ascii \22init\22"
module asm "\09.ascii \22 \22"
module asm "\09.ascii \22out\22"
module asm "\09.ascii \22 \22"
module asm "\09.ascii \22command_line_arguments..import\22"
module asm "\09.ascii \22 \22"
module asm "\09.ascii \22bytes\22"
module asm "\09.ascii \22 \22"
module asm "\09.ascii \22bytes..import\22"
module asm "\09.ascii \22 \22"
module asm "\09.ascii \22fmt\22"
module asm "\09.ascii \22 \22"
module asm "\09.ascii \22fmt..import\22"
module asm "\09.ascii \22 \22"
module asm "\09.ascii \22color\22"
module asm "\09.ascii \22 \22"
module asm "\09.ascii \22github_com_spolu_warp_vendor_github_com_fatih_color..import\22"
module asm "\09.ascii \22 \22"
module asm "\09.ascii \22poll\22"
module asm "\09.ascii \22 \22"
module asm "\09.ascii \22internal_poll..import\22"
module asm "\09.ascii \22 \22"
module asm "\09.ascii \22testlog\22"
module asm "\09.ascii \22 \22"
module asm "\09.ascii \22internal_testlog..import\22"
module asm "\09.ascii \22 \22"
module asm "\09.ascii \22io\22"
module asm "\09.ascii \22 \22"
module asm "\09.ascii \22io..import\22"
module asm "\09.ascii \22 \22"
module asm "\09.ascii \22os\22"
module asm "\09.ascii \22 \22"
module asm "\09.ascii \22os..import\22"
module asm "\09.ascii \22 \22"
module asm "\09.ascii \22reflect\22"
module asm "\09.ascii \22 \22"
module asm "\09.ascii \22reflect..import\22"
module asm "\09.ascii \22 \22"
module asm "\09.ascii \22runtime\22"
module asm "\09.ascii \22 \22"
module asm "\09.ascii \22runtime..import\22"
module asm "\09.ascii \22 \22"
module asm "\09.ascii \22sys\22"
module asm "\09.ascii \22 \22"
module asm "\09.ascii \22runtime_internal_sys..import\22"
module asm "\09.ascii \22 \22"
module asm "\09.ascii \22strconv\22"
module asm "\09.ascii \22 \22"
module asm "\09.ascii \22strconv..import\22"
module asm "\09.ascii \22 \22"
module asm "\09.ascii \22sync\22"
module asm "\09.ascii \22 \22"
module asm "\09.ascii \22sync..import\22"
module asm "\09.ascii \22 \22"
module asm "\09.ascii \22syscall\22"
module asm "\09.ascii \22 \22"
module asm "\09.ascii \22syscall..import\22"
module asm "\09.ascii \22 \22"
module asm "\09.ascii \22time\22"
module asm "\09.ascii \22 \22"
module asm "\09.ascii \22time..import\22"
module asm "\09.ascii \22 \22"
module asm "\09.ascii \22unicode\22"
module asm "\09.ascii \22 \22"
module asm "\09.ascii \22unicode..import\22"
module asm "\09.ascii \22;\5Cn\22"
module asm "\09.ascii \22init_graph\22"
module asm "\09.ascii \22 \22"
module asm "\09.ascii \220\22"
module asm "\09.ascii \22 \22"
module asm "\09.ascii \221\22"
module asm "\09.ascii \22 \22"
module asm "\09.ascii \220\22"
module asm "\09.ascii \22 \22"
module asm "\09.ascii \222\22"
module asm "\09.ascii \22 \22"
module asm "\09.ascii \220\22"
module asm "\09.ascii \22 \22"
module asm "\09.ascii \223\22"
module asm "\09.ascii \22 \22"
module asm "\09.ascii \220\22"
module asm "\09.ascii \22 \22"
module asm "\09.ascii \224\22"
module asm "\09.ascii \22 \22"
module asm "\09.ascii \220\22"
module asm "\09.ascii \22 \22"
module asm "\09.ascii \225\22"
module asm "\09.ascii \22 \22"
module asm "\09.ascii \220\22"
module asm "\09.ascii \22 \22"
module asm "\09.ascii \226\22"
module asm "\09.ascii \22 \22"
module asm "\09.ascii \220\22"
module asm "\09.ascii \22 \22"
module asm "\09.ascii \227\22"
module asm "\09.ascii \22 \22"
module asm "\09.ascii \220\22"
module asm "\09.ascii \22 \22"
module asm "\09.ascii \228\22"
module asm "\09.ascii \22 \22"
module asm "\09.ascii \220\22"
module asm "\09.ascii \22 \22"
module asm "\09.ascii \229\22"
module asm "\09.ascii \22 \22"
module asm "\09.ascii \220\22"
module asm "\09.ascii \22 \22"
module asm "\09.ascii \2210\22"
module asm "\09.ascii \22 \22"
module asm "\09.ascii \220\22"
module asm "\09.ascii \22 \22"
module asm "\09.ascii \2211\22"
module asm "\09.ascii \22 \22"
module asm "\09.ascii \220\22"
module asm "\09.ascii \22 \22"
module asm "\09.ascii \2212\22"
module asm "\09.ascii \22 \22"
module asm "\09.ascii \220\22"
module asm "\09.ascii \22 \22"
module asm "\09.ascii \2213\22"
module asm "\09.ascii \22 \22"
module asm "\09.ascii \220\22"
module asm "\09.ascii \22 \22"
module asm "\09.ascii \2214\22"
module asm "\09.ascii \22 \22"
module asm "\09.ascii \220\22"
module asm "\09.ascii \22 \22"
module asm "\09.ascii \2215\22"
module asm "\09.ascii \22 \22"
module asm "\09.ascii \221\22"
module asm "\09.ascii \22 \22"
module asm "\09.ascii \226\22"
module asm "\09.ascii \22 \22"
module asm "\09.ascii \221\22"
module asm "\09.ascii \22 \22"
module asm "\09.ascii \229\22"
module asm "\09.ascii \22 \22"
module asm "\09.ascii \221\22"
module asm "\09.ascii \22 \22"
module asm "\09.ascii \2210\22"
module asm "\09.ascii \22 \22"
module asm "\09.ascii \221\22"
module asm "\09.ascii \22 \22"
module asm "\09.ascii \2212\22"
module asm "\09.ascii \22 \22"
module asm "\09.ascii \221\22"
module asm "\09.ascii \22 \22"
module asm "\09.ascii \2215\22"
module asm "\09.ascii \22 \22"
module asm "\09.ascii \222\22"
module asm "\09.ascii \22 \22"
module asm "\09.ascii \224\22"
module asm "\09.ascii \22 \22"
module asm "\09.ascii \222\22"
module asm "\09.ascii \22 \22"
module asm "\09.ascii \225\22"
module asm "\09.ascii \22 \22"
module asm "\09.ascii \222\22"
module asm "\09.ascii \22 \22"
module asm "\09.ascii \226\22"
module asm "\09.ascii \22 \22"
module asm "\09.ascii \222\22"
module asm "\09.ascii \22 \22"
module asm "\09.ascii \227\22"
module asm "\09.ascii \22 \22"
module asm "\09.ascii \222\22"
module asm "\09.ascii \22 \22"
module asm "\09.ascii \228\22"
module asm "\09.ascii \22 \22"
module asm "\09.ascii \222\22"
module asm "\09.ascii \22 \22"
module asm "\09.ascii \229\22"
module asm "\09.ascii \22 \22"
module asm "\09.ascii \222\22"
module asm "\09.ascii \22 \22"
module asm "\09.ascii \2210\22"
module asm "\09.ascii \22 \22"
module asm "\09.ascii \222\22"
module asm "\09.ascii \22 \22"
module asm "\09.ascii \2211\22"
module asm "\09.ascii \22 \22"
module asm "\09.ascii \222\22"
module asm "\09.ascii \22 \22"
module asm "\09.ascii \2212\22"
module asm "\09.ascii \22 \22"
module asm "\09.ascii \222\22"
module asm "\09.ascii \22 \22"
module asm "\09.ascii \2213\22"
module asm "\09.ascii \22 \22"
module asm "\09.ascii \222\22"
module asm "\09.ascii \22 \22"
module asm "\09.ascii \2214\22"
module asm "\09.ascii \22 \22"
module asm "\09.ascii \222\22"
module asm "\09.ascii \22 \22"
module asm "\09.ascii \2215\22"
module asm "\09.ascii \22 \22"
module asm "\09.ascii \223\22"
module asm "\09.ascii \22 \22"
module asm "\09.ascii \221\22"
module asm "\09.ascii \22 \22"
module asm "\09.ascii \223\22"
module asm "\09.ascii \22 \22"
module asm "\09.ascii \222\22"
module asm "\09.ascii \22 \22"
module asm "\09.ascii \223\22"
module asm "\09.ascii \22 \22"
module asm "\09.ascii \224\22"
module asm "\09.ascii \22 \22"
module asm "\09.ascii \223\22"
module asm "\09.ascii \22 \22"
module asm "\09.ascii \225\22"
module asm "\09.ascii \22 \22"
module asm "\09.ascii \223\22"
module asm "\09.ascii \22 \22"
module asm "\09.ascii \226\22"
module asm "\09.ascii \22 \22"
module asm "\09.ascii \223\22"
module asm "\09.ascii \22 \22"
module asm "\09.ascii \227\22"
module asm "\09.ascii \22 \22"
module asm "\09.ascii \223\22"
module asm "\09.ascii \22 \22"
module asm "\09.ascii \228\22"
module asm "\09.ascii \22 \22"
module asm "\09.ascii \223\22"
module asm "\09.ascii \22 \22"
module asm "\09.ascii \229\22"
module asm "\09.ascii \22 \22"
module asm "\09.ascii \223\22"
module asm "\09.ascii \22 \22"
module asm "\09.ascii \2210\22"
module asm "\09.ascii \22 \22"
module asm "\09.ascii \223\22"
module asm "\09.ascii \22 \22"
module asm "\09.ascii \2211\22"
module asm "\09.ascii \22 \22"
module asm "\09.ascii \223\22"
module asm "\09.ascii \22 \22"
module asm "\09.ascii \2212\22"
module asm "\09.ascii \22 \22"
module asm "\09.ascii \223\22"
module asm "\09.ascii \22 \22"
module asm "\09.ascii \2213\22"
module asm "\09.ascii \22 \22"
module asm "\09.ascii \223\22"
module asm "\09.ascii \22 \22"
module asm "\09.ascii \2214\22"
module asm "\09.ascii \22 \22"
module asm "\09.ascii \223\22"
module asm "\09.ascii \22 \22"
module asm "\09.ascii \2215\22"
module asm "\09.ascii \22 \22"
module asm "\09.ascii \224\22"
module asm "\09.ascii \22 \22"
module asm "\09.ascii \226\22"
module asm "\09.ascii \22 \22"
module asm "\09.ascii \224\22"
module asm "\09.ascii \22 \22"
module asm "\09.ascii \229\22"
module asm "\09.ascii \22 \22"
module asm "\09.ascii \224\22"
module asm "\09.ascii \22 \22"
module asm "\09.ascii \2210\22"
module asm "\09.ascii \22 \22"
module asm "\09.ascii \224\22"
module asm "\09.ascii \22 \22"
module asm "\09.ascii \2212\22"
module asm "\09.ascii \22 \22"
module asm "\09.ascii \224\22"
module asm "\09.ascii \22 \22"
module asm "\09.ascii \2213\22"
module asm "\09.ascii \22 \22"
module asm "\09.ascii \224\22"
module asm "\09.ascii \22 \22"
module asm "\09.ascii \2214\22"
module asm "\09.ascii \22 \22"
module asm "\09.ascii \226\22"
module asm "\09.ascii \22 \22"
module asm "\09.ascii \229\22"
module asm "\09.ascii \22 \22"
module asm "\09.ascii \226\22"
module asm "\09.ascii \22 \22"
module asm "\09.ascii \2210\22"
module asm "\09.ascii \22 \22"
module asm "\09.ascii \226\22"
module asm "\09.ascii \22 \22"
module asm "\09.ascii \2212\22"
module asm "\09.ascii \22 \22"
module asm "\09.ascii \227\22"
module asm "\09.ascii \22 \22"
module asm "\09.ascii \224\22"
module asm "\09.ascii \22 \22"
module asm "\09.ascii \227\22"
module asm "\09.ascii \22 \22"
module asm "\09.ascii \225\22"
module asm "\09.ascii \22 \22"
module asm "\09.ascii \227\22"
module asm "\09.ascii \22 \22"
module asm "\09.ascii \226\22"
module asm "\09.ascii \22 \22"
module asm "\09.ascii \227\22"
module asm "\09.ascii \22 \22"
module asm "\09.ascii \229\22"
module asm "\09.ascii \22 \22"
module asm "\09.ascii \227\22"
module asm "\09.ascii \22 \22"
module asm "\09.ascii \2210\22"
module asm "\09.ascii \22 \22"
module asm "\09.ascii \227\22"
module asm "\09.ascii \22 \22"
module asm "\09.ascii \2212\22"
module asm "\09.ascii \22 \22"
module asm "\09.ascii \227\22"
module asm "\09.ascii \22 \22"
module asm "\09.ascii \2213\22"
module asm "\09.ascii \22 \22"
module asm "\09.ascii \227\22"
module asm "\09.ascii \22 \22"
module asm "\09.ascii \2214\22"
module asm "\09.ascii \22 \22"
module asm "\09.ascii \228\22"
module asm "\09.ascii \22 \22"
module asm "\09.ascii \229\22"
module asm "\09.ascii \22 \22"
module asm "\09.ascii \228\22"
module asm "\09.ascii \22 \22"
module asm "\09.ascii \2210\22"
module asm "\09.ascii \22 \22"
module asm "\09.ascii \228\22"
module asm "\09.ascii \22 \22"
module asm "\09.ascii \2211\22"
module asm "\09.ascii \22 \22"
module asm "\09.ascii \228\22"
module asm "\09.ascii \22 \22"
module asm "\09.ascii \2212\22"
module asm "\09.ascii \22 \22"
module asm "\09.ascii \228\22"
module asm "\09.ascii \22 \22"
module asm "\09.ascii \2215\22"
module asm "\09.ascii \22 \22"
module asm "\09.ascii \229\22"
module asm "\09.ascii \22 \22"
module asm "\09.ascii \2210\22"
module asm "\09.ascii \22 \22"
module asm "\09.ascii \2211\22"
module asm "\09.ascii \22 \22"
module asm "\09.ascii \229\22"
module asm "\09.ascii \22 \22"
module asm "\09.ascii \2211\22"
module asm "\09.ascii \22 \22"
module asm "\09.ascii \2210\22"
module asm "\09.ascii \22 \22"
module asm "\09.ascii \2212\22"
module asm "\09.ascii \22 \22"
module asm "\09.ascii \229\22"
module asm "\09.ascii \22 \22"
module asm "\09.ascii \2212\22"
module asm "\09.ascii \22 \22"
module asm "\09.ascii \2210\22"
module asm "\09.ascii \22 \22"
module asm "\09.ascii \2213\22"
module asm "\09.ascii \22 \22"
module asm "\09.ascii \229\22"
module asm "\09.ascii \22 \22"
module asm "\09.ascii \2213\22"
module asm "\09.ascii \22 \22"
module asm "\09.ascii \2210\22"
module asm "\09.ascii \22 \22"
module asm "\09.ascii \2213\22"
module asm "\09.ascii \22 \22"
module asm "\09.ascii \2212\22"
module asm "\09.ascii \22 \22"
module asm "\09.ascii \2214\22"
module asm "\09.ascii \22 \22"
module asm "\09.ascii \229\22"
module asm "\09.ascii \22 \22"
module asm "\09.ascii \2214\22"
module asm "\09.ascii \22 \22"
module asm "\09.ascii \2210\22"
module asm "\09.ascii \22 \22"
module asm "\09.ascii \2214\22"
module asm "\09.ascii \22 \22"
module asm "\09.ascii \2212\22"
module asm "\09.ascii \22 \22"
module asm "\09.ascii \2214\22"
module asm "\09.ascii \22 \22"
module asm "\09.ascii \2213\22"
module asm "\09.ascii \22;\5Cn\22"
module asm "\09.ascii \22func \22"
module asm "\09.ascii \22Boldf\22"
module asm "\09.ascii \22 (\22"
module asm "\09.ascii \22format\22"
module asm "\09.ascii \22 \22"
module asm "\09.ascii \22<type -16>\22"
module asm "\09.ascii \22, \22"
module asm "\09.ascii \22v\22"
module asm "\09.ascii \22 \22"
module asm "\09.ascii \22...\22"
module asm "\09.ascii \22<type 1 \22"
module asm "\09.ascii \22interface { \22"
module asm "\09.ascii \22}\22"
module asm "\09.ascii \22>\22"
module asm "\09.ascii \22)\22"
module asm "\09.ascii \22;\5Cn\22"
module asm "\09.ascii \22func \22"
module asm "\09.ascii \22Errof\22"
module asm "\09.ascii \22 (\22"
module asm "\09.ascii \22format\22"
module asm "\09.ascii \22 \22"
module asm "\09.ascii \22<type -16>\22"
module asm "\09.ascii \22, \22"
module asm "\09.ascii \22v\22"
module asm "\09.ascii \22 \22"
module asm "\09.ascii \22...\22"
module asm "\09.ascii \22<type 2 \22"
module asm "\09.ascii \22interface { \22"
module asm "\09.ascii \22}\22"
module asm "\09.ascii \22>\22"
module asm "\09.ascii \22)\22"
module asm "\09.ascii \22;\5Cn\22"
module asm "\09.ascii \22func \22"
module asm "\09.ascii \22Normf\22"
module asm "\09.ascii \22 (\22"
module asm "\09.ascii \22format\22"
module asm "\09.ascii \22 \22"
module asm "\09.ascii \22<esc:0x1>\22"
module asm "\09.ascii \22 \22"
module asm "\09.ascii \22<type -16>\22"
module asm "\09.ascii \22, \22"
module asm "\09.ascii \22v\22"
module asm "\09.ascii \22 \22"
module asm "\09.ascii \22<esc:0x9>\22"
module asm "\09.ascii \22 \22"
module asm "\09.ascii \22...\22"
module asm "\09.ascii \22<type 3 \22"
module asm "\09.ascii \22interface { \22"
module asm "\09.ascii \22}\22"
module asm "\09.ascii \22>\22"
module asm "\09.ascii \22)\22"
module asm "\09.ascii \22;\5Cn\22"
module asm "\09.ascii \22func \22"
module asm "\09.ascii \22Statf\22"
module asm "\09.ascii \22 (\22"
module asm "\09.ascii \22format\22"
module asm "\09.ascii \22 \22"
module asm "\09.ascii \22<type -16>\22"
module asm "\09.ascii \22, \22"
module asm "\09.ascii \22v\22"
module asm "\09.ascii \22 \22"
module asm "\09.ascii \22...\22"
module asm "\09.ascii \22<type 4 \22"
module asm "\09.ascii \22interface { \22"
module asm "\09.ascii \22}\22"
module asm "\09.ascii \22>\22"
module asm "\09.ascii \22)\22"
module asm "\09.ascii \22;\5Cn\22"
module asm "\09.ascii \22func \22"
module asm "\09.ascii \22Valuf\22"
module asm "\09.ascii \22 (\22"
module asm "\09.ascii \22format\22"
module asm "\09.ascii \22 \22"
module asm "\09.ascii \22<type -16>\22"
module asm "\09.ascii \22, \22"
module asm "\09.ascii \22v\22"
module asm "\09.ascii \22 \22"
module asm "\09.ascii \22...\22"
module asm "\09.ascii \22<type 5 \22"
module asm "\09.ascii \22interface { \22"
module asm "\09.ascii \22}\22"
module asm "\09.ascii \22>\22"
module asm "\09.ascii \22)\22"
module asm "\09.ascii \22;\5Cn\22"
module asm "\09.ascii \22func \22"
module asm "\09.ascii \22Warnf\22"
module asm "\09.ascii \22 (\22"
module asm "\09.ascii \22format\22"
module asm "\09.ascii \22 \22"
module asm "\09.ascii \22<type -16>\22"
module asm "\09.ascii \22, \22"
module asm "\09.ascii \22v\22"
module asm "\09.ascii \22 \22"
module asm "\09.ascii \22...\22"
module asm "\09.ascii \22<type 6 \22"
module asm "\09.ascii \22interface { \22"
module asm "\09.ascii \22}\22"
module asm "\09.ascii \22>\22"
module asm "\09.ascii \22)\22"
module asm "\09.ascii \22;\5Cn\22"
module asm "\09.ascii \22func \22"
module asm "\09.ascii \22command_line_arguments..init0\22"
module asm "\09.ascii \22 (\22"
module asm "\09.ascii \22)\22"
module asm "\09.ascii \22;\5Cn\22"
module asm "\09.ascii \22checksum 21970616B7317D41701CB3277A2F49456F5CF977;\5Cn\22"
module asm "\09.text"

%Color.0 = type { %IPST.0, i8* }
%IPST.0 = type { i64*, i64, i64 }
%functionDescriptor.0 = type { i64 }
%IPST.1 = type { { %_type.0*, i8* }*, i64, i64 }
%_type.0 = type { i64, i64, i32, i8, i8, i8, %__go_descriptor.0*, %__go_descriptor.1*, i8*, { i8*, i64 }*, %uncommonType.0*, %_type.0* }
%__go_descriptor.0 = type { i64 (i8*, i8*, i64)* }
%__go_descriptor.1 = type { i8 (i8*, i8*, i8*)* }
%uncommonType.0 = type { { i8*, i64 }*, { i8*, i64 }*, %IPST.2 }
%IPST.2 = type { %method.0*, i64, i64 }
%method.0 = type { { i8*, i64 }*, { i8*, i64 }*, %_type.0*, %_type.0*, i8* }
%error.0 = type { { %_type.0*, { i64, i64 } (i8*, i8*)* }*, i8* }
%__go_descriptor.3 = type { void (i8*, i64, i64, %IPST.1*)* }

$gcbits..ba = comdat any

@command_line_arguments.white = internal global %Color.0* null
@command_line_arguments.bold = internal global %Color.0* null
@command_line_arguments.cyan = internal global %Color.0* null
@command_line_arguments.yellow = internal global %Color.0* null
@command_line_arguments.magenta = internal global %Color.0* null
@command_line_arguments.redBold = internal global %Color.0* null
@runtime.writeBarrier = external local_unnamed_addr externally_initialized global i32
@const.5 = private unnamed_addr constant [2 x i64] [i64 31, i64 1]
@command_line_arguments.command_line_arguments..init0..f = local_unnamed_addr constant %functionDescriptor.0 { i64 ptrtoint (void (i8*)* @command_line_arguments.command_line_arguments..init0 to i64) }
@command_line_arguments.Normf..f = local_unnamed_addr constant %functionDescriptor.0 { i64 ptrtoint (void (i8*, i64, i64, %IPST.1*)* @command_line_arguments.Normf to i64) }
@command_line_arguments.Boldf..f = local_unnamed_addr constant %functionDescriptor.0 { i64 ptrtoint (void (i8*, i64, i64, %IPST.1*)* @command_line_arguments.Boldf to i64) }
@command_line_arguments.Valuf..f = local_unnamed_addr constant %functionDescriptor.0 { i64 ptrtoint (void (i8*, i64, i64, %IPST.1*)* @command_line_arguments.Valuf to i64) }
@command_line_arguments.Warnf..f = local_unnamed_addr constant %functionDescriptor.0 { i64 ptrtoint (void (i8*, i64, i64, %IPST.1*)* @command_line_arguments.Warnf to i64) }
@command_line_arguments.Errof..f = local_unnamed_addr constant %functionDescriptor.0 { i64 ptrtoint (void (i8*, i64, i64, %IPST.1*)* @command_line_arguments.Errof to i64) }
@command_line_arguments.Statf..f = local_unnamed_addr constant %functionDescriptor.0 { i64 ptrtoint (void (i8*, i64, i64, %IPST.1*)* @command_line_arguments.Statf to i64) }
@gcbits..ba = weak constant [1 x i8] c"\01", comdat
@go..C0 = internal global { i8*, i64, [6 x { i8*, i64, i64, i8* }] } { i8* null, i64 6, [6 x { i8*, i64, i64, i8* }] [{ i8*, i64, i64, i8* } { i8* bitcast (%Color.0** @command_line_arguments.white to i8*), i64 8, i64 8, i8* getelementptr inbounds ([1 x i8], [1 x i8]* @gcbits..ba, i32 0, i32 0) }, { i8*, i64, i64, i8* } { i8* bitcast (%Color.0** @command_line_arguments.bold to i8*), i64 8, i64 8, i8* getelementptr inbounds ([1 x i8], [1 x i8]* @gcbits..ba, i32 0, i32 0) }, { i8*, i64, i64, i8* } { i8* bitcast (%Color.0** @command_line_arguments.cyan to i8*), i64 8, i64 8, i8* getelementptr inbounds ([1 x i8], [1 x i8]* @gcbits..ba, i32 0, i32 0) }, { i8*, i64, i64, i8* } { i8* bitcast (%Color.0** @command_line_arguments.yellow to i8*), i64 8, i64 8, i8* getelementptr inbounds ([1 x i8], [1 x i8]* @gcbits..ba, i32 0, i32 0) }, { i8*, i64, i64, i8* } { i8* bitcast (%Color.0** @command_line_arguments.magenta to i8*), i64 8, i64 8, i8* getelementptr inbounds ([1 x i8], [1 x i8]* @gcbits..ba, i32 0, i32 0) }, { i8*, i64, i64, i8* } { i8* bitcast (%Color.0** @command_line_arguments.redBold to i8*), i64 8, i64 8, i8* getelementptr inbounds ([1 x i8], [1 x i8]* @gcbits..ba, i32 0, i32 0) }] }

define void @command_line_arguments.command_line_arguments..init0(i8* nest nocapture readnone %nest.0) #0 !dbg !38 {
entry:
  %tmp.5 = alloca %IPST.0, align 8
  %tmp.4 = alloca %IPST.0, align 8
  %tmp.3 = alloca %IPST.0, align 8
  %tmp.2 = alloca %IPST.0, align 8
  %tmp.1 = alloca %IPST.0, align 8
  %tmp.0 = alloca %IPST.0, align 8
  %tmpv.0 = alloca [1 x i64], align 8
  %tmpv.4 = alloca [1 x i64], align 8
  %tmpv.8 = alloca [1 x i64], align 8
  %tmpv.12 = alloca [1 x i64], align 8
  %tmpv.16 = alloca [1 x i64], align 8
  %tmpv.20 = alloca [2 x i64], align 8
  %0 = getelementptr inbounds [1 x i64], [1 x i64]* %tmpv.0, i64 0, i64 0
  store i64 37, i64* %0, align 8
  %field.0 = getelementptr inbounds %IPST.0, %IPST.0* %tmp.0, i64 0, i32 0, !dbg !42
  store i64* %0, i64** %field.0, align 8, !dbg !42
  %field.1 = getelementptr inbounds %IPST.0, %IPST.0* %tmp.0, i64 0, i32 1, !dbg !42
  store i64 1, i64* %field.1, align 8, !dbg !42
  %field.2 = getelementptr inbounds %IPST.0, %IPST.0* %tmp.0, i64 0, i32 2, !dbg !42
  store i64 1, i64* %field.2, align 8, !dbg !42
  %call.0 = call %Color.0* @github_com_spolu_warp_vendor_github_com_fatih_color.New(i8* nest undef, %IPST.0* byval nonnull %tmp.0), !dbg !42
  %runtime.writeBarrier.ld.0 = load i32, i32* @runtime.writeBarrier, align 4, !dbg !43
  %icmp.1 = icmp eq i32 %runtime.writeBarrier.ld.0, 0, !dbg !43
  br i1 %icmp.1, label %else.1, label %else.0

fallthrough.0:                                    ; preds = %else.0, %else.1
  %1 = getelementptr inbounds [1 x i64], [1 x i64]* %tmpv.4, i64 0, i64 0
  store i64 1, i64* %1, align 8
  %field.3 = getelementptr inbounds %IPST.0, %IPST.0* %tmp.1, i64 0, i32 0, !dbg !44
  store i64* %1, i64** %field.3, align 8, !dbg !44
  %field.4 = getelementptr inbounds %IPST.0, %IPST.0* %tmp.1, i64 0, i32 1, !dbg !44
  store i64 1, i64* %field.4, align 8, !dbg !44
  %field.5 = getelementptr inbounds %IPST.0, %IPST.0* %tmp.1, i64 0, i32 2, !dbg !44
  store i64 1, i64* %field.5, align 8, !dbg !44
  %call.1 = call %Color.0* @github_com_spolu_warp_vendor_github_com_fatih_color.New(i8* nest undef, %IPST.0* byval nonnull %tmp.1), !dbg !44
  %runtime.writeBarrier.ld.1 = load i32, i32* @runtime.writeBarrier, align 4, !dbg !45
  %icmp.3 = icmp eq i32 %runtime.writeBarrier.ld.1, 0, !dbg !45
  br i1 %icmp.3, label %else.3, label %else.2

else.0:                                           ; preds = %entry
  %cast.5 = bitcast %Color.0* %call.0 to i8*, !dbg !43
  call void @runtime.writebarrierptr(i8* nest undef, i8* bitcast (%Color.0** @command_line_arguments.white to i8*), i8* %cast.5), !dbg !43
  br label %fallthrough.0

else.1:                                           ; preds = %entry
  store %Color.0* %call.0, %Color.0** @command_line_arguments.white, align 8, !dbg !43
  br label %fallthrough.0

fallthrough.2:                                    ; preds = %else.2, %else.3
  %2 = getelementptr inbounds [1 x i64], [1 x i64]* %tmpv.8, i64 0, i64 0
  store i64 36, i64* %2, align 8
  %field.6 = getelementptr inbounds %IPST.0, %IPST.0* %tmp.2, i64 0, i32 0, !dbg !46
  store i64* %2, i64** %field.6, align 8, !dbg !46
  %field.7 = getelementptr inbounds %IPST.0, %IPST.0* %tmp.2, i64 0, i32 1, !dbg !46
  store i64 1, i64* %field.7, align 8, !dbg !46
  %field.8 = getelementptr inbounds %IPST.0, %IPST.0* %tmp.2, i64 0, i32 2, !dbg !46
  store i64 1, i64* %field.8, align 8, !dbg !46
  %call.2 = call %Color.0* @github_com_spolu_warp_vendor_github_com_fatih_color.New(i8* nest undef, %IPST.0* byval nonnull %tmp.2), !dbg !46
  %runtime.writeBarrier.ld.2 = load i32, i32* @runtime.writeBarrier, align 4, !dbg !47
  %icmp.5 = icmp eq i32 %runtime.writeBarrier.ld.2, 0, !dbg !47
  br i1 %icmp.5, label %else.5, label %else.4

else.2:                                           ; preds = %fallthrough.0
  %cast.11 = bitcast %Color.0* %call.1 to i8*, !dbg !45
  call void @runtime.writebarrierptr(i8* nest undef, i8* bitcast (%Color.0** @command_line_arguments.bold to i8*), i8* %cast.11), !dbg !45
  br label %fallthrough.2

else.3:                                           ; preds = %fallthrough.0
  store %Color.0* %call.1, %Color.0** @command_line_arguments.bold, align 8, !dbg !45
  br label %fallthrough.2

fallthrough.4:                                    ; preds = %else.4, %else.5
  %3 = getelementptr inbounds [1 x i64], [1 x i64]* %tmpv.12, i64 0, i64 0
  store i64 33, i64* %3, align 8
  %field.9 = getelementptr inbounds %IPST.0, %IPST.0* %tmp.3, i64 0, i32 0, !dbg !48
  store i64* %3, i64** %field.9, align 8, !dbg !48
  %field.10 = getelementptr inbounds %IPST.0, %IPST.0* %tmp.3, i64 0, i32 1, !dbg !48
  store i64 1, i64* %field.10, align 8, !dbg !48
  %field.11 = getelementptr inbounds %IPST.0, %IPST.0* %tmp.3, i64 0, i32 2, !dbg !48
  store i64 1, i64* %field.11, align 8, !dbg !48
  %call.3 = call %Color.0* @github_com_spolu_warp_vendor_github_com_fatih_color.New(i8* nest undef, %IPST.0* byval nonnull %tmp.3), !dbg !48
  %runtime.writeBarrier.ld.3 = load i32, i32* @runtime.writeBarrier, align 4, !dbg !49
  %icmp.7 = icmp eq i32 %runtime.writeBarrier.ld.3, 0, !dbg !49
  br i1 %icmp.7, label %else.7, label %else.6

else.4:                                           ; preds = %fallthrough.2
  %cast.17 = bitcast %Color.0* %call.2 to i8*, !dbg !47
  call void @runtime.writebarrierptr(i8* nest undef, i8* bitcast (%Color.0** @command_line_arguments.cyan to i8*), i8* %cast.17), !dbg !47
  br label %fallthrough.4

else.5:                                           ; preds = %fallthrough.2
  store %Color.0* %call.2, %Color.0** @command_line_arguments.cyan, align 8, !dbg !47
  br label %fallthrough.4

fallthrough.6:                                    ; preds = %else.6, %else.7
  %4 = getelementptr inbounds [1 x i64], [1 x i64]* %tmpv.16, i64 0, i64 0
  store i64 35, i64* %4, align 8
  %field.12 = getelementptr inbounds %IPST.0, %IPST.0* %tmp.4, i64 0, i32 0, !dbg !50
  store i64* %4, i64** %field.12, align 8, !dbg !50
  %field.13 = getelementptr inbounds %IPST.0, %IPST.0* %tmp.4, i64 0, i32 1, !dbg !50
  store i64 1, i64* %field.13, align 8, !dbg !50
  %field.14 = getelementptr inbounds %IPST.0, %IPST.0* %tmp.4, i64 0, i32 2, !dbg !50
  store i64 1, i64* %field.14, align 8, !dbg !50
  %call.4 = call %Color.0* @github_com_spolu_warp_vendor_github_com_fatih_color.New(i8* nest undef, %IPST.0* byval nonnull %tmp.4), !dbg !50
  %runtime.writeBarrier.ld.4 = load i32, i32* @runtime.writeBarrier, align 4, !dbg !51
  %icmp.9 = icmp eq i32 %runtime.writeBarrier.ld.4, 0, !dbg !51
  br i1 %icmp.9, label %else.9, label %else.8

else.6:                                           ; preds = %fallthrough.4
  %cast.23 = bitcast %Color.0* %call.3 to i8*, !dbg !49
  call void @runtime.writebarrierptr(i8* nest undef, i8* bitcast (%Color.0** @command_line_arguments.yellow to i8*), i8* %cast.23), !dbg !49
  br label %fallthrough.6

else.7:                                           ; preds = %fallthrough.4
  store %Color.0* %call.3, %Color.0** @command_line_arguments.yellow, align 8, !dbg !49
  br label %fallthrough.6

fallthrough.8:                                    ; preds = %else.8, %else.9
  %cast.30 = bitcast [2 x i64]* %tmpv.20 to i8*
  call void @llvm.memcpy.p0i8.p0i8.i64(i8* nonnull align 8 %cast.30, i8* align 8 bitcast ([2 x i64]* @const.5 to i8*), i64 16, i1 false)
  %field.15 = getelementptr inbounds %IPST.0, %IPST.0* %tmp.5, i64 0, i32 0, !dbg !52
  %cast.32 = getelementptr inbounds [2 x i64], [2 x i64]* %tmpv.20, i64 0, i64 0, !dbg !52
  store i64* %cast.32, i64** %field.15, align 8, !dbg !52
  %field.16 = getelementptr inbounds %IPST.0, %IPST.0* %tmp.5, i64 0, i32 1, !dbg !52
  store i64 2, i64* %field.16, align 8, !dbg !52
  %field.17 = getelementptr inbounds %IPST.0, %IPST.0* %tmp.5, i64 0, i32 2, !dbg !52
  store i64 2, i64* %field.17, align 8, !dbg !52
  %call.5 = call %Color.0* @github_com_spolu_warp_vendor_github_com_fatih_color.New(i8* nest undef, %IPST.0* byval nonnull %tmp.5), !dbg !52
  %runtime.writeBarrier.ld.5 = load i32, i32* @runtime.writeBarrier, align 4, !dbg !53
  %icmp.11 = icmp eq i32 %runtime.writeBarrier.ld.5, 0, !dbg !53
  br i1 %icmp.11, label %else.11, label %else.10

else.8:                                           ; preds = %fallthrough.6
  %cast.29 = bitcast %Color.0* %call.4 to i8*, !dbg !51
  call void @runtime.writebarrierptr(i8* nest undef, i8* bitcast (%Color.0** @command_line_arguments.magenta to i8*), i8* %cast.29), !dbg !51
  br label %fallthrough.8

else.9:                                           ; preds = %fallthrough.6
  store %Color.0* %call.4, %Color.0** @command_line_arguments.magenta, align 8, !dbg !51
  br label %fallthrough.8

fallthrough.10:                                   ; preds = %else.10, %else.11
  ret void

else.10:                                          ; preds = %fallthrough.8
  %cast.35 = bitcast %Color.0* %call.5 to i8*, !dbg !53
  call void @runtime.writebarrierptr(i8* nest undef, i8* bitcast (%Color.0** @command_line_arguments.redBold to i8*), i8* %cast.35), !dbg !53
  br label %fallthrough.10

else.11:                                          ; preds = %fallthrough.8
  store %Color.0* %call.5, %Color.0** @command_line_arguments.redBold, align 8, !dbg !53
  br label %fallthrough.10
}

; Function Attrs: argmemonly nounwind
declare void @llvm.memcpy.p0i8.p0i8.i64(i8* nocapture writeonly, i8* nocapture readonly, i64, i1) #1

declare %Color.0* @github_com_spolu_warp_vendor_github_com_fatih_color.New(i8*, %IPST.0*) local_unnamed_addr #0

declare void @runtime.writebarrierptr(i8*, i8*, i8*) local_unnamed_addr #0

define void @command_line_arguments.Normf(i8* nest nocapture readnone %nest.1, i64 %format.chunk0, i64 %format.chunk1, %IPST.1* byval %v) #0 !dbg !54 {
entry:
  call void @llvm.dbg.declare(metadata %IPST.1* %v, metadata !118, metadata !DIExpression()), !dbg !119
  %sret.actual.0 = alloca { i64, %error.0 }, align 8
  call void @llvm.dbg.value(metadata i64 %format.chunk0, metadata !120, metadata !DIExpression(DW_OP_LLVM_fragment, 0, 64)), !dbg !121
  call void @llvm.dbg.value(metadata i64 %format.chunk1, metadata !120, metadata !DIExpression(DW_OP_LLVM_fragment, 64, 64)), !dbg !121
  call void @fmt.Printf({ i64, %error.0 }* nonnull sret %sret.actual.0, i8* nest undef, i64 %format.chunk0, i64 %format.chunk1, %IPST.1* byval nonnull %v), !dbg !122
  ret void
}

declare void @fmt.Printf({ i64, %error.0 }*, i8*, i64, i64, %IPST.1*) local_unnamed_addr #0

; Function Attrs: nounwind readnone speculatable
declare void @llvm.dbg.declare(metadata, metadata, metadata) #2

define void @command_line_arguments.Boldf(i8* nest nocapture readnone %nest.2, i64 %format.chunk0, i64 %format.chunk1, %IPST.1* byval %v) #0 !dbg !123 {
entry:
  call void @llvm.dbg.declare(metadata %IPST.1* %v, metadata !124, metadata !DIExpression()), !dbg !125
  call void @llvm.dbg.value(metadata i64 %format.chunk0, metadata !126, metadata !DIExpression(DW_OP_LLVM_fragment, 0, 64)), !dbg !127
  call void @llvm.dbg.value(metadata i64 %format.chunk1, metadata !126, metadata !DIExpression(DW_OP_LLVM_fragment, 64, 64)), !dbg !127
  %command_line_arguments.bold.ld.0 = load %Color.0*, %Color.0** @command_line_arguments.bold, align 8, !dbg !128
  %call.6 = call %__go_descriptor.3* @github_com_spolu_warp_vendor_github_com_fatih_color.Color.PrintfFunc(i8* nest undef, %Color.0* %command_line_arguments.bold.ld.0), !dbg !129
  %0 = getelementptr inbounds %__go_descriptor.3, %__go_descriptor.3* %call.6, i64 0, i32 0, !dbg !129
  %deref.ld.02 = load void (i8*, i64, i64, %IPST.1*)*, void (i8*, i64, i64, %IPST.1*)** %0, align 8, !dbg !129
  %cast.44 = bitcast %__go_descriptor.3* %call.6 to i8*, !dbg !129
  call void %deref.ld.02(i8* nest %cast.44, i64 %format.chunk0, i64 %format.chunk1, %IPST.1* byval nonnull %v), !dbg !129
  ret void
}

declare %__go_descriptor.3* @github_com_spolu_warp_vendor_github_com_fatih_color.Color.PrintfFunc(i8*, %Color.0*) local_unnamed_addr #0

define void @command_line_arguments.Valuf(i8* nest nocapture readnone %nest.3, i64 %format.chunk0, i64 %format.chunk1, %IPST.1* byval %v) #0 !dbg !130 {
entry:
  call void @llvm.dbg.declare(metadata %IPST.1* %v, metadata !131, metadata !DIExpression()), !dbg !132
  call void @llvm.dbg.value(metadata i64 %format.chunk0, metadata !133, metadata !DIExpression(DW_OP_LLVM_fragment, 0, 64)), !dbg !134
  call void @llvm.dbg.value(metadata i64 %format.chunk1, metadata !133, metadata !DIExpression(DW_OP_LLVM_fragment, 64, 64)), !dbg !134
  %command_line_arguments.cyan.ld.0 = load %Color.0*, %Color.0** @command_line_arguments.cyan, align 8, !dbg !135
  %call.7 = call %__go_descriptor.3* @github_com_spolu_warp_vendor_github_com_fatih_color.Color.PrintfFunc(i8* nest undef, %Color.0* %command_line_arguments.cyan.ld.0), !dbg !136
  %0 = getelementptr inbounds %__go_descriptor.3, %__go_descriptor.3* %call.7, i64 0, i32 0, !dbg !136
  %deref.ld.12 = load void (i8*, i64, i64, %IPST.1*)*, void (i8*, i64, i64, %IPST.1*)** %0, align 8, !dbg !136
  %cast.49 = bitcast %__go_descriptor.3* %call.7 to i8*, !dbg !136
  call void %deref.ld.12(i8* nest %cast.49, i64 %format.chunk0, i64 %format.chunk1, %IPST.1* byval nonnull %v), !dbg !136
  ret void
}

define void @command_line_arguments.Warnf(i8* nest nocapture readnone %nest.4, i64 %format.chunk0, i64 %format.chunk1, %IPST.1* byval %v) #0 !dbg !137 {
entry:
  call void @llvm.dbg.declare(metadata %IPST.1* %v, metadata !138, metadata !DIExpression()), !dbg !139
  call void @llvm.dbg.value(metadata i64 %format.chunk0, metadata !140, metadata !DIExpression(DW_OP_LLVM_fragment, 0, 64)), !dbg !141
  call void @llvm.dbg.value(metadata i64 %format.chunk1, metadata !140, metadata !DIExpression(DW_OP_LLVM_fragment, 64, 64)), !dbg !141
  %command_line_arguments.yellow.ld.0 = load %Color.0*, %Color.0** @command_line_arguments.yellow, align 8, !dbg !142
  %call.8 = call %__go_descriptor.3* @github_com_spolu_warp_vendor_github_com_fatih_color.Color.PrintfFunc(i8* nest undef, %Color.0* %command_line_arguments.yellow.ld.0), !dbg !143
  %0 = getelementptr inbounds %__go_descriptor.3, %__go_descriptor.3* %call.8, i64 0, i32 0, !dbg !143
  %deref.ld.22 = load void (i8*, i64, i64, %IPST.1*)*, void (i8*, i64, i64, %IPST.1*)** %0, align 8, !dbg !143
  %cast.54 = bitcast %__go_descriptor.3* %call.8 to i8*, !dbg !143
  call void %deref.ld.22(i8* nest %cast.54, i64 %format.chunk0, i64 %format.chunk1, %IPST.1* byval nonnull %v), !dbg !143
  ret void
}

define void @command_line_arguments.Errof(i8* nest nocapture readnone %nest.5, i64 %format.chunk0, i64 %format.chunk1, %IPST.1* byval %v) #0 !dbg !144 {
entry:
  call void @llvm.dbg.declare(metadata %IPST.1* %v, metadata !145, metadata !DIExpression()), !dbg !146
  call void @llvm.dbg.value(metadata i64 %format.chunk0, metadata !147, metadata !DIExpression(DW_OP_LLVM_fragment, 0, 64)), !dbg !148
  call void @llvm.dbg.value(metadata i64 %format.chunk1, metadata !147, metadata !DIExpression(DW_OP_LLVM_fragment, 64, 64)), !dbg !148
  %command_line_arguments.redBold.ld.0 = load %Color.0*, %Color.0** @command_line_arguments.redBold, align 8, !dbg !149
  %call.9 = call %__go_descriptor.3* @github_com_spolu_warp_vendor_github_com_fatih_color.Color.PrintfFunc(i8* nest undef, %Color.0* %command_line_arguments.redBold.ld.0), !dbg !150
  %0 = getelementptr inbounds %__go_descriptor.3, %__go_descriptor.3* %call.9, i64 0, i32 0, !dbg !150
  %deref.ld.32 = load void (i8*, i64, i64, %IPST.1*)*, void (i8*, i64, i64, %IPST.1*)** %0, align 8, !dbg !150
  %cast.59 = bitcast %__go_descriptor.3* %call.9 to i8*, !dbg !150
  call void %deref.ld.32(i8* nest %cast.59, i64 %format.chunk0, i64 %format.chunk1, %IPST.1* byval nonnull %v), !dbg !150
  ret void
}

define void @command_line_arguments.Statf(i8* nest nocapture readnone %nest.6, i64 %format.chunk0, i64 %format.chunk1, %IPST.1* byval %v) #0 !dbg !151 {
entry:
  call void @llvm.dbg.declare(metadata %IPST.1* %v, metadata !152, metadata !DIExpression()), !dbg !153
  call void @llvm.dbg.value(metadata i64 %format.chunk0, metadata !154, metadata !DIExpression(DW_OP_LLVM_fragment, 0, 64)), !dbg !155
  call void @llvm.dbg.value(metadata i64 %format.chunk1, metadata !154, metadata !DIExpression(DW_OP_LLVM_fragment, 64, 64)), !dbg !155
  %command_line_arguments.magenta.ld.0 = load %Color.0*, %Color.0** @command_line_arguments.magenta, align 8, !dbg !156
  %call.10 = call %__go_descriptor.3* @github_com_spolu_warp_vendor_github_com_fatih_color.Color.PrintfFunc(i8* nest undef, %Color.0* %command_line_arguments.magenta.ld.0), !dbg !157
  %0 = getelementptr inbounds %__go_descriptor.3, %__go_descriptor.3* %call.10, i64 0, i32 0, !dbg !157
  %deref.ld.42 = load void (i8*, i64, i64, %IPST.1*)*, void (i8*, i64, i64, %IPST.1*)** %0, align 8, !dbg !157
  %cast.64 = bitcast %__go_descriptor.3* %call.10 to i8*, !dbg !157
  call void %deref.ld.42(i8* nest %cast.64, i64 %format.chunk0, i64 %format.chunk1, %IPST.1* byval nonnull %v), !dbg !157
  ret void
}

declare void @runtime.registerGCRoots(i8*, i8*) local_unnamed_addr #0

define void @command_line_arguments..import(i8* nest nocapture readnone %nest.7) local_unnamed_addr #0 !dbg !158 {
entry:
  call void @runtime.registerGCRoots(i8* nest undef, i8* bitcast ({ i8*, i64, [6 x { i8*, i64, i64, i8* }] }* @go..C0 to i8*)), !dbg !159
  call void @command_line_arguments.command_line_arguments..init0(i8* nest undef), !dbg !161
  ret void
}

; Function Attrs: nounwind readnone speculatable
declare void @llvm.dbg.value(metadata, metadata, metadata) #2

attributes #0 = { "disable-tail-calls"="true" "no-frame-pointer-elim"="false" "split-stack" "target-cpu"="x86-64" "target-features"="+fxsr,+mmx,+sse,+sse2,+x87" }
attributes #1 = { argmemonly nounwind }
attributes #2 = { nounwind readnone speculatable }

!llvm.module.flags = !{!0}
!llvm.dbg.cu = !{!1}

!0 = !{i32 7, !"PIC Level", i32 0}
!1 = distinct !DICompileUnit(language: DW_LANG_Go, file: !2, producer: "llvm-goc", isOptimized: true, runtimeVersion: 0, emissionKind: FullDebug, enums: !3, globals: !4)
!2 = !DIFile(filename: "./out.go", directory: "/home/wangcong/go_path/src/github.com/spolu/warp/lib/out")
!3 = !{}
!4 = !{!5, !24, !26, !28, !30, !32, !34}
!5 = !DIGlobalVariableExpression(var: !6, expr: !DIExpression())
!6 = distinct !DIGlobalVariable(name: "command_line_arguments.white", linkageName: "command_line_arguments.white", scope: !1, file: !7, line: 9, type: !8, isLocal: true, isDefinition: true)
!7 = !DIFile(filename: "out.go", directory: ".")
!8 = !DIDerivedType(tag: DW_TAG_pointer_type, baseType: !9, size: 64)
!9 = !DICompositeType(tag: DW_TAG_structure_type, name: "Color", file: !7, line: 6, size: 256, align: 8, elements: !10)
!10 = !{!11, !21}
!11 = !DIDerivedType(tag: DW_TAG_member, name: "params", file: !7, line: 6, baseType: !12, size: 192, align: 64)
!12 = !DICompositeType(tag: DW_TAG_structure_type, name: "struct{*Attribute,int,int}", file: !13, size: 192, align: 8, elements: !14)
!13 = !DIFile(filename: "", directory: "")
!14 = !{!15, !18, !20}
!15 = !DIDerivedType(tag: DW_TAG_member, name: "__values", file: !13, line: 1, baseType: !16, size: 64, align: 64)
!16 = !DIDerivedType(tag: DW_TAG_pointer_type, baseType: !17, size: 64)
!17 = !DIBasicType(name: "Attribute", size: 64, encoding: DW_ATE_signed)
!18 = !DIDerivedType(tag: DW_TAG_member, name: "__count", file: !13, line: 1, baseType: !19, size: 64, align: 64, offset: 64)
!19 = !DIBasicType(name: "int", size: 64, encoding: DW_ATE_signed)
!20 = !DIDerivedType(tag: DW_TAG_member, name: "__capacity", file: !13, line: 1, baseType: !19, size: 64, align: 64, offset: 128)
!21 = !DIDerivedType(tag: DW_TAG_member, name: "noColor", file: !7, line: 6, baseType: !22, size: 64, align: 64, offset: 192)
!22 = !DIDerivedType(tag: DW_TAG_pointer_type, baseType: !23, size: 64)
!23 = !DIBasicType(name: "bool", size: 8, encoding: DW_ATE_unsigned)
!24 = !DIGlobalVariableExpression(var: !25, expr: !DIExpression())
!25 = distinct !DIGlobalVariable(name: "command_line_arguments.bold", linkageName: "command_line_arguments.bold", scope: !1, file: !7, line: 10, type: !8, isLocal: true, isDefinition: true)
!26 = !DIGlobalVariableExpression(var: !27, expr: !DIExpression())
!27 = distinct !DIGlobalVariable(name: "command_line_arguments.cyan", linkageName: "command_line_arguments.cyan", scope: !1, file: !7, line: 11, type: !8, isLocal: true, isDefinition: true)
!28 = !DIGlobalVariableExpression(var: !29, expr: !DIExpression())
!29 = distinct !DIGlobalVariable(name: "command_line_arguments.yellow", linkageName: "command_line_arguments.yellow", scope: !1, file: !7, line: 12, type: !8, isLocal: true, isDefinition: true)
!30 = !DIGlobalVariableExpression(var: !31, expr: !DIExpression())
!31 = distinct !DIGlobalVariable(name: "command_line_arguments.magenta", linkageName: "command_line_arguments.magenta", scope: !1, file: !7, line: 13, type: !8, isLocal: true, isDefinition: true)
!32 = !DIGlobalVariableExpression(var: !33, expr: !DIExpression())
!33 = distinct !DIGlobalVariable(name: "command_line_arguments.redBold", linkageName: "command_line_arguments.redBold", scope: !1, file: !7, line: 14, type: !8, isLocal: true, isDefinition: true)
!34 = !DIGlobalVariableExpression(var: !35, expr: !DIExpression())
!35 = distinct !DIGlobalVariable(name: "runtime.writeBarrier", linkageName: "runtime.writeBarrier", scope: !1, file: !36, line: 1, type: !37, isLocal: false, isDefinition: true)
!36 = !DIFile(filename: "<built-in>", directory: "")
!37 = !DIBasicType(name: "uint32", size: 32, encoding: DW_ATE_unsigned)
!38 = distinct !DISubprogram(name: "out.command_line_arguments..init0", linkageName: "command_line_arguments.command_line_arguments..init0", scope: null, file: !7, line: 16, type: !39, isLocal: false, isDefinition: true, scopeLine: 16, isOptimized: false, unit: !1, retainedNodes: !3)
!39 = !DISubroutineType(types: !40)
!40 = !{!41}
!41 = !DIBasicType(name: "void")
!42 = !DILocation(line: 17, column: 16, scope: !38)
!43 = !DILocation(line: 17, column: 8, scope: !38)
!44 = !DILocation(line: 18, column: 15, scope: !38)
!45 = !DILocation(line: 18, column: 7, scope: !38)
!46 = !DILocation(line: 19, column: 15, scope: !38)
!47 = !DILocation(line: 19, column: 7, scope: !38)
!48 = !DILocation(line: 20, column: 17, scope: !38)
!49 = !DILocation(line: 20, column: 9, scope: !38)
!50 = !DILocation(line: 21, column: 18, scope: !38)
!51 = !DILocation(line: 21, column: 10, scope: !38)
!52 = !DILocation(line: 22, column: 18, scope: !38)
!53 = !DILocation(line: 22, column: 10, scope: !38)
!54 = distinct !DISubprogram(name: "out.Normf", linkageName: "command_line_arguments.Normf", scope: null, file: !7, line: 26, type: !55, isLocal: false, isDefinition: true, scopeLine: 26, isOptimized: false, unit: !1, retainedNodes: !3)
!55 = !DISubroutineType(types: !56)
!56 = !{!41, !57, !63}
!57 = !DICompositeType(tag: DW_TAG_structure_type, name: "string", file: !36, line: 1, size: 128, align: 8, elements: !58)
!58 = !{!59, !62}
!59 = !DIDerivedType(tag: DW_TAG_member, name: "__data", file: !36, line: 1, baseType: !60, size: 64, align: 64)
!60 = !DIDerivedType(tag: DW_TAG_pointer_type, baseType: !61, size: 64)
!61 = !DIBasicType(name: "uint8", size: 8, encoding: DW_ATE_unsigned)
!62 = !DIDerivedType(tag: DW_TAG_member, name: "__length", file: !36, line: 1, baseType: !19, size: 64, align: 64, offset: 64)
!63 = !DICompositeType(tag: DW_TAG_structure_type, name: "struct{*struct{*_type,*void},int,int}", file: !13, size: 192, align: 8, elements: !64)
!64 = !{!65, !18, !20}
!65 = !DIDerivedType(tag: DW_TAG_member, name: "__values", file: !13, line: 1, baseType: !66, size: 64, align: 64)
!66 = !DIDerivedType(tag: DW_TAG_pointer_type, baseType: !67, size: 64)
!67 = !DICompositeType(tag: DW_TAG_structure_type, name: "struct{*_type,*void}", file: !13, size: 128, align: 8, elements: !68)
!68 = !{!69, !117}
!69 = !DIDerivedType(tag: DW_TAG_member, name: "__type_descriptor", file: !13, line: 1, baseType: !70, size: 64, align: 64)
!70 = !DIDerivedType(tag: DW_TAG_pointer_type, baseType: !71, size: 64)
!71 = !DICompositeType(tag: DW_TAG_structure_type, name: "_type", file: !36, line: 1, size: 576, align: 8, elements: !72)
!72 = !{!73, !75, !76, !77, !78, !79, !80, !89, !97, !98, !100, !116}
!73 = !DIDerivedType(tag: DW_TAG_member, name: "size", file: !36, line: 1, baseType: !74, size: 64, align: 64)
!74 = !DIBasicType(name: "uintptr", size: 64, encoding: DW_ATE_unsigned)
!75 = !DIDerivedType(tag: DW_TAG_member, name: "ptrdata", file: !36, line: 1, baseType: !74, size: 64, align: 64, offset: 64)
!76 = !DIDerivedType(tag: DW_TAG_member, name: "hash", file: !36, line: 1, baseType: !37, size: 32, align: 32, offset: 128)
!77 = !DIDerivedType(tag: DW_TAG_member, name: "kind", file: !36, line: 1, baseType: !61, size: 8, align: 8, offset: 160)
!78 = !DIDerivedType(tag: DW_TAG_member, name: "align", file: !36, line: 1, baseType: !61, size: 8, align: 8, offset: 168)
!79 = !DIDerivedType(tag: DW_TAG_member, name: "fieldAlign", file: !36, line: 1, baseType: !61, size: 8, align: 8, offset: 176)
!80 = !DIDerivedType(tag: DW_TAG_member, name: "hashfn", file: !36, line: 1, baseType: !81, size: 64, align: 64, offset: 192)
!81 = !DIDerivedType(tag: DW_TAG_pointer_type, baseType: !82, size: 64)
!82 = !DICompositeType(tag: DW_TAG_structure_type, name: "__go_descriptor", file: !36, line: 1, size: 64, align: 8, elements: !83)
!83 = !{!84}
!84 = !DIDerivedType(tag: DW_TAG_member, name: "code", file: !36, line: 1, baseType: !85, size: 64, align: 64)
!85 = !DIDerivedType(tag: DW_TAG_pointer_type, baseType: !86, size: 64)
!86 = !DISubroutineType(types: !87)
!87 = !{!74, !88, !74}
!88 = !DIDerivedType(tag: DW_TAG_pointer_type, baseType: !41, size: 64)
!89 = !DIDerivedType(tag: DW_TAG_member, name: "equalfn", file: !36, line: 1, baseType: !90, size: 64, align: 64, offset: 256)
!90 = !DIDerivedType(tag: DW_TAG_pointer_type, baseType: !91, size: 64)
!91 = !DICompositeType(tag: DW_TAG_structure_type, name: "__go_descriptor", file: !36, line: 1, size: 64, align: 8, elements: !92)
!92 = !{!93}
!93 = !DIDerivedType(tag: DW_TAG_member, name: "code", file: !36, line: 1, baseType: !94, size: 64, align: 64)
!94 = !DIDerivedType(tag: DW_TAG_pointer_type, baseType: !95, size: 64)
!95 = !DISubroutineType(types: !96)
!96 = !{!23, !88, !88}
!97 = !DIDerivedType(tag: DW_TAG_member, name: "gcdata", file: !36, line: 1, baseType: !60, size: 64, align: 64, offset: 320)
!98 = !DIDerivedType(tag: DW_TAG_member, name: "string", file: !36, line: 1, baseType: !99, size: 64, align: 64, offset: 384)
!99 = !DIDerivedType(tag: DW_TAG_pointer_type, baseType: !57, size: 64)
!100 = !DIDerivedType(tag: DW_TAG_member, name: "uncommonType", file: !36, line: 1, baseType: !101, size: 64, align: 64, offset: 448)
!101 = !DIDerivedType(tag: DW_TAG_pointer_type, baseType: !102, size: 64)
!102 = !DICompositeType(tag: DW_TAG_structure_type, name: "uncommonType", file: !36, line: 1, size: 320, align: 8, elements: !103)
!103 = !{!104, !105, !106}
!104 = !DIDerivedType(tag: DW_TAG_member, name: "name", file: !36, line: 1, baseType: !99, size: 64, align: 64)
!105 = !DIDerivedType(tag: DW_TAG_member, name: "pkgPath", file: !36, line: 1, baseType: !99, size: 64, align: 64, offset: 64)
!106 = !DIDerivedType(tag: DW_TAG_member, name: "methods", file: !36, line: 1, baseType: !107, size: 192, align: 64, offset: 128)
!107 = !DICompositeType(tag: DW_TAG_structure_type, name: "struct{*method,int,int}", file: !13, size: 192, align: 8, elements: !108)
!108 = !{!109, !18, !20}
!109 = !DIDerivedType(tag: DW_TAG_member, name: "__values", file: !13, line: 1, baseType: !110, size: 64, align: 64)
!110 = !DIDerivedType(tag: DW_TAG_pointer_type, baseType: !111, size: 64)
!111 = !DICompositeType(tag: DW_TAG_structure_type, name: "method", file: !36, line: 1, size: 320, align: 8, elements: !112)
!112 = !{!104, !105, !113, !114, !115}
!113 = !DIDerivedType(tag: DW_TAG_member, name: "mtyp", file: !36, line: 1, baseType: !88, size: 64, align: 64, offset: 128)
!114 = !DIDerivedType(tag: DW_TAG_member, name: "typ", file: !36, line: 1, baseType: !88, size: 64, align: 64, offset: 192)
!115 = !DIDerivedType(tag: DW_TAG_member, name: "tfn", file: !36, line: 1, baseType: !88, size: 64, align: 64, offset: 256)
!116 = !DIDerivedType(tag: DW_TAG_member, name: "ptrToThis", file: !36, line: 1, baseType: !88, size: 64, align: 64, offset: 512)
!117 = !DIDerivedType(tag: DW_TAG_member, name: "__object", file: !13, line: 1, baseType: !88, size: 64, align: 64, offset: 64)
!118 = !DILocalVariable(name: "v", arg: 2, scope: !54, file: !7, line: 26, type: !63)
!119 = !DILocation(line: 26, column: 27, scope: !54)
!120 = !DILocalVariable(name: "format", arg: 1, scope: !54, file: !7, line: 26, type: !57)
!121 = !DILocation(line: 26, column: 12, scope: !54)
!122 = !DILocation(line: 27, column: 6, scope: !54)
!123 = distinct !DISubprogram(name: "out.Boldf", linkageName: "command_line_arguments.Boldf", scope: null, file: !7, line: 31, type: !55, isLocal: false, isDefinition: true, scopeLine: 31, isOptimized: false, unit: !1, retainedNodes: !3)
!124 = !DILocalVariable(name: "v", arg: 2, scope: !123, file: !7, line: 31, type: !63)
!125 = !DILocation(line: 31, column: 27, scope: !123)
!126 = !DILocalVariable(name: "format", arg: 1, scope: !123, file: !7, line: 31, type: !57)
!127 = !DILocation(line: 31, column: 12, scope: !123)
!128 = !DILocation(line: 32, column: 2, scope: !123)
!129 = !DILocation(line: 32, column: 6, scope: !123)
!130 = distinct !DISubprogram(name: "out.Valuf", linkageName: "command_line_arguments.Valuf", scope: null, file: !7, line: 36, type: !55, isLocal: false, isDefinition: true, scopeLine: 36, isOptimized: false, unit: !1, retainedNodes: !3)
!131 = !DILocalVariable(name: "v", arg: 2, scope: !130, file: !7, line: 36, type: !63)
!132 = !DILocation(line: 36, column: 27, scope: !130)
!133 = !DILocalVariable(name: "format", arg: 1, scope: !130, file: !7, line: 36, type: !57)
!134 = !DILocation(line: 36, column: 12, scope: !130)
!135 = !DILocation(line: 37, column: 2, scope: !130)
!136 = !DILocation(line: 37, column: 6, scope: !130)
!137 = distinct !DISubprogram(name: "out.Warnf", linkageName: "command_line_arguments.Warnf", scope: null, file: !7, line: 41, type: !55, isLocal: false, isDefinition: true, scopeLine: 41, isOptimized: false, unit: !1, retainedNodes: !3)
!138 = !DILocalVariable(name: "v", arg: 2, scope: !137, file: !7, line: 41, type: !63)
!139 = !DILocation(line: 41, column: 27, scope: !137)
!140 = !DILocalVariable(name: "format", arg: 1, scope: !137, file: !7, line: 41, type: !57)
!141 = !DILocation(line: 41, column: 12, scope: !137)
!142 = !DILocation(line: 42, column: 2, scope: !137)
!143 = !DILocation(line: 42, column: 8, scope: !137)
!144 = distinct !DISubprogram(name: "out.Errof", linkageName: "command_line_arguments.Errof", scope: null, file: !7, line: 46, type: !55, isLocal: false, isDefinition: true, scopeLine: 46, isOptimized: false, unit: !1, retainedNodes: !3)
!145 = !DILocalVariable(name: "v", arg: 2, scope: !144, file: !7, line: 46, type: !63)
!146 = !DILocation(line: 46, column: 27, scope: !144)
!147 = !DILocalVariable(name: "format", arg: 1, scope: !144, file: !7, line: 46, type: !57)
!148 = !DILocation(line: 46, column: 12, scope: !144)
!149 = !DILocation(line: 47, column: 2, scope: !144)
!150 = !DILocation(line: 47, column: 9, scope: !144)
!151 = distinct !DISubprogram(name: "out.Statf", linkageName: "command_line_arguments.Statf", scope: null, file: !7, line: 51, type: !55, isLocal: false, isDefinition: true, scopeLine: 51, isOptimized: false, unit: !1, retainedNodes: !3)
!152 = !DILocalVariable(name: "v", arg: 2, scope: !151, file: !7, line: 51, type: !63)
!153 = !DILocation(line: 51, column: 27, scope: !151)
!154 = !DILocalVariable(name: "format", arg: 1, scope: !151, file: !7, line: 51, type: !57)
!155 = !DILocation(line: 51, column: 12, scope: !151)
!156 = !DILocation(line: 52, column: 2, scope: !151)
!157 = !DILocation(line: 52, column: 9, scope: !151)
!158 = distinct !DISubprogram(name: "out.command_line_arguments..import", linkageName: "command_line_arguments..import", scope: null, file: !7, line: 1, type: !39, isLocal: false, isDefinition: true, scopeLine: 1, isOptimized: false, unit: !1, retainedNodes: !3)
!159 = !DILocation(line: 1, column: 1, scope: !160)
!160 = !DILexicalBlockFile(scope: !158, file: !36, discriminator: 0)
!161 = !DILocation(line: 16, column: 1, scope: !162)
!162 = !DILexicalBlockFile(scope: !158, file: !7, discriminator: 0)
	.text
	.file	"gomodule"

	.section ".go_export","e",@progbits
	.ascii "v2;\n"
	.ascii "package "
	.ascii "out"
	.ascii ";\n"
	.ascii "pkgpath "
	.ascii "command-line-arguments"
	.ascii ";\n"
	.ascii "import "
	.ascii "fmt"
	.ascii " "
	.ascii "fmt"
	.ascii " \""
	.ascii "fmt"
	.ascii "\";\n"
	.ascii "import "
	.ascii "color"
	.ascii " "
	.ascii "github.com/spolu/warp/vendor/github.com/fatih/color"
	.ascii " \""
	.ascii "github.com/fatih/color"
	.ascii "\";\n"
	.ascii "init"
	.ascii " "
	.ascii "out"
	.ascii " "
	.ascii "command_line_arguments..import"
	.ascii " "
	.ascii "bytes"
	.ascii " "
	.ascii "bytes..import"
	.ascii " "
	.ascii "fmt"
	.ascii " "
	.ascii "fmt..import"
	.ascii " "
	.ascii "color"
	.ascii " "
	.ascii "github_com_spolu_warp_vendor_github_com_fatih_color..import"
	.ascii " "
	.ascii "poll"
	.ascii " "
	.ascii "internal_poll..import"
	.ascii " "
	.ascii "testlog"
	.ascii " "
	.ascii "internal_testlog..import"
	.ascii " "
	.ascii "io"
	.ascii " "
	.ascii "io..import"
	.ascii " "
	.ascii "os"
	.ascii " "
	.ascii "os..import"
	.ascii " "
	.ascii "reflect"
	.ascii " "
	.ascii "reflect..import"
	.ascii " "
	.ascii "runtime"
	.ascii " "
	.ascii "runtime..import"
	.ascii " "
	.ascii "sys"
	.ascii " "
	.ascii "runtime_internal_sys..import"
	.ascii " "
	.ascii "strconv"
	.ascii " "
	.ascii "strconv..import"
	.ascii " "
	.ascii "sync"
	.ascii " "
	.ascii "sync..import"
	.ascii " "
	.ascii "syscall"
	.ascii " "
	.ascii "syscall..import"
	.ascii " "
	.ascii "time"
	.ascii " "
	.ascii "time..import"
	.ascii " "
	.ascii "unicode"
	.ascii " "
	.ascii "unicode..import"
	.ascii ";\n"
	.ascii "init_graph"
	.ascii " "
	.ascii "0"
	.ascii " "
	.ascii "1"
	.ascii " "
	.ascii "0"
	.ascii " "
	.ascii "2"
	.ascii " "
	.ascii "0"
	.ascii " "
	.ascii "3"
	.ascii " "
	.ascii "0"
	.ascii " "
	.ascii "4"
	.ascii " "
	.ascii "0"
	.ascii " "
	.ascii "5"
	.ascii " "
	.ascii "0"
	.ascii " "
	.ascii "6"
	.ascii " "
	.ascii "0"
	.ascii " "
	.ascii "7"
	.ascii " "
	.ascii "0"
	.ascii " "
	.ascii "8"
	.ascii " "
	.ascii "0"
	.ascii " "
	.ascii "9"
	.ascii " "
	.ascii "0"
	.ascii " "
	.ascii "10"
	.ascii " "
	.ascii "0"
	.ascii " "
	.ascii "11"
	.ascii " "
	.ascii "0"
	.ascii " "
	.ascii "12"
	.ascii " "
	.ascii "0"
	.ascii " "
	.ascii "13"
	.ascii " "
	.ascii "0"
	.ascii " "
	.ascii "14"
	.ascii " "
	.ascii "0"
	.ascii " "
	.ascii "15"
	.ascii " "
	.ascii "1"
	.ascii " "
	.ascii "6"
	.ascii " "
	.ascii "1"
	.ascii " "
	.ascii "9"
	.ascii " "
	.ascii "1"
	.ascii " "
	.ascii "10"
	.ascii " "
	.ascii "1"
	.ascii " "
	.ascii "12"
	.ascii " "
	.ascii "1"
	.ascii " "
	.ascii "15"
	.ascii " "
	.ascii "2"
	.ascii " "
	.ascii "4"
	.ascii " "
	.ascii "2"
	.ascii " "
	.ascii "5"
	.ascii " "
	.ascii "2"
	.ascii " "
	.ascii "6"
	.ascii " "
	.ascii "2"
	.ascii " "
	.ascii "7"
	.ascii " "
	.ascii "2"
	.ascii " "
	.ascii "8"
	.ascii " "
	.ascii "2"
	.ascii " "
	.ascii "9"
	.ascii " "
	.ascii "2"
	.ascii " "
	.ascii "10"
	.ascii " "
	.ascii "2"
	.ascii " "
	.ascii "11"
	.ascii " "
	.ascii "2"
	.ascii " "
	.ascii "12"
	.ascii " "
	.ascii "2"
	.ascii " "
	.ascii "13"
	.ascii " "
	.ascii "2"
	.ascii " "
	.ascii "14"
	.ascii " "
	.ascii "2"
	.ascii " "
	.ascii "15"
	.ascii " "
	.ascii "3"
	.ascii " "
	.ascii "1"
	.ascii " "
	.ascii "3"
	.ascii " "
	.ascii "2"
	.ascii " "
	.ascii "3"
	.ascii " "
	.ascii "4"
	.ascii " "
	.ascii "3"
	.ascii " "
	.ascii "5"
	.ascii " "
	.ascii "3"
	.ascii " "
	.ascii "6"
	.ascii " "
	.ascii "3"
	.ascii " "
	.ascii "7"
	.ascii " "
	.ascii "3"
	.ascii " "
	.ascii "8"
	.ascii " "
	.ascii "3"
	.ascii " "
	.ascii "9"
	.ascii " "
	.ascii "3"
	.ascii " "
	.ascii "10"
	.ascii " "
	.ascii "3"
	.ascii " "
	.ascii "11"
	.ascii " "
	.ascii "3"
	.ascii " "
	.ascii "12"
	.ascii " "
	.ascii "3"
	.ascii " "
	.ascii "13"
	.ascii " "
	.ascii "3"
	.ascii " "
	.ascii "14"
	.ascii " "
	.ascii "3"
	.ascii " "
	.ascii "15"
	.ascii " "
	.ascii "4"
	.ascii " "
	.ascii "6"
	.ascii " "
	.ascii "4"
	.ascii " "
	.ascii "9"
	.ascii " "
	.ascii "4"
	.ascii " "
	.ascii "10"
	.ascii " "
	.ascii "4"
	.ascii " "
	.ascii "12"
	.ascii " "
	.ascii "4"
	.ascii " "
	.ascii "13"
	.ascii " "
	.ascii "4"
	.ascii " "
	.ascii "14"
	.ascii " "
	.ascii "6"
	.ascii " "
	.ascii "9"
	.ascii " "
	.ascii "6"
	.ascii " "
	.ascii "10"
	.ascii " "
	.ascii "6"
	.ascii " "
	.ascii "12"
	.ascii " "
	.ascii "7"
	.ascii " "
	.ascii "4"
	.ascii " "
	.ascii "7"
	.ascii " "
	.ascii "5"
	.ascii " "
	.ascii "7"
	.ascii " "
	.ascii "6"
	.ascii " "
	.ascii "7"
	.ascii " "
	.ascii "9"
	.ascii " "
	.ascii "7"
	.ascii " "
	.ascii "10"
	.ascii " "
	.ascii "7"
	.ascii " "
	.ascii "12"
	.ascii " "
	.ascii "7"
	.ascii " "
	.ascii "13"
	.ascii " "
	.ascii "7"
	.ascii " "
	.ascii "14"
	.ascii " "
	.ascii "8"
	.ascii " "
	.ascii "9"
	.ascii " "
	.ascii "8"
	.ascii " "
	.ascii "10"
	.ascii " "
	.ascii "8"
	.ascii " "
	.ascii "11"
	.ascii " "
	.ascii "8"
	.ascii " "
	.ascii "12"
	.ascii " "
	.ascii "8"
	.ascii " "
	.ascii "15"
	.ascii " "
	.ascii "9"
	.ascii " "
	.ascii "10"
	.ascii " "
	.ascii "11"
	.ascii " "
	.ascii "9"
	.ascii " "
	.ascii "11"
	.ascii " "
	.ascii "10"
	.ascii " "
	.ascii "12"
	.ascii " "
	.ascii "9"
	.ascii " "
	.ascii "12"
	.ascii " "
	.ascii "10"
	.ascii " "
	.ascii "13"
	.ascii " "
	.ascii "9"
	.ascii " "
	.ascii "13"
	.ascii " "
	.ascii "10"
	.ascii " "
	.ascii "13"
	.ascii " "
	.ascii "12"
	.ascii " "
	.ascii "14"
	.ascii " "
	.ascii "9"
	.ascii " "
	.ascii "14"
	.ascii " "
	.ascii "10"
	.ascii " "
	.ascii "14"
	.ascii " "
	.ascii "12"
	.ascii " "
	.ascii "14"
	.ascii " "
	.ascii "13"
	.ascii ";\n"
	.ascii "func "
	.ascii "Boldf"
	.ascii " ("
	.ascii "format"
	.ascii " "
	.ascii "<type -16>"
	.ascii ", "
	.ascii "v"
	.ascii " "
	.ascii "..."
	.ascii "<type 1 "
	.ascii "interface { "
	.ascii "}"
	.ascii ">"
	.ascii ")"
	.ascii ";\n"
	.ascii "func "
	.ascii "Errof"
	.ascii " ("
	.ascii "format"
	.ascii " "
	.ascii "<type -16>"
	.ascii ", "
	.ascii "v"
	.ascii " "
	.ascii "..."
	.ascii "<type 2 "
	.ascii "interface { "
	.ascii "}"
	.ascii ">"
	.ascii ")"
	.ascii ";\n"
	.ascii "func "
	.ascii "Normf"
	.ascii " ("
	.ascii "format"
	.ascii " "
	.ascii "<esc:0x1>"
	.ascii " "
	.ascii "<type -16>"
	.ascii ", "
	.ascii "v"
	.ascii " "
	.ascii "<esc:0x9>"
	.ascii " "
	.ascii "..."
	.ascii "<type 3 "
	.ascii "interface { "
	.ascii "}"
	.ascii ">"
	.ascii ")"
	.ascii ";\n"
	.ascii "func "
	.ascii "Statf"
	.ascii " ("
	.ascii "format"
	.ascii " "
	.ascii "<type -16>"
	.ascii ", "
	.ascii "v"
	.ascii " "
	.ascii "..."
	.ascii "<type 4 "
	.ascii "interface { "
	.ascii "}"
	.ascii ">"
	.ascii ")"
	.ascii ";\n"
	.ascii "func "
	.ascii "Valuf"
	.ascii " ("
	.ascii "format"
	.ascii " "
	.ascii "<type -16>"
	.ascii ", "
	.ascii "v"
	.ascii " "
	.ascii "..."
	.ascii "<type 5 "
	.ascii "interface { "
	.ascii "}"
	.ascii ">"
	.ascii ")"
	.ascii ";\n"
	.ascii "func "
	.ascii "Warnf"
	.ascii " ("
	.ascii "format"
	.ascii " "
	.ascii "<type -16>"
	.ascii ", "
	.ascii "v"
	.ascii " "
	.ascii "..."
	.ascii "<type 6 "
	.ascii "interface { "
	.ascii "}"
	.ascii ">"
	.ascii ")"
	.ascii ";\n"
	.ascii "func "
	.ascii "command_line_arguments..init0"
	.ascii " ("
	.ascii ")"
	.ascii ";\n"
	.ascii "checksum 21970616B7317D41701CB3277A2F49456F5CF977;\n"
	.text


	.file	1 "<stdin>"
	.file	2 "./out.go"
	.file	3 "<built-in>"
	.section	.text.command_line_arguments.command_line_arguments..init0,"ax",@progbits
	.globl	command_line_arguments.command_line_arguments..init0
	.p2align	4, 0x90
	.type	command_line_arguments.command_line_arguments..init0,@function
command_line_arguments.command_line_arguments..init0:
.Lfunc_begin0:
	.loc	2 16 0
	.cfi_startproc
	cmpq	%fs:112, %rsp
	ja	.LBB0_2
	movq	%r10, %rax
	movabsq	$232, %r10
	movabsq	$0, %r11
	callq	__morestack
	retq
	movq	%rax, %r10
.LBB0_2:
	subq	$232, %rsp
	.cfi_def_cfa_offset 240
	movq	$37, 56(%rsp)
	leaq	56(%rsp), %rax
.Ltmp0:
	.loc	2 17 16 prologue_end
	movq	%rax, 64(%rsp)
	movq	$1, 72(%rsp)
	movq	$1, 80(%rsp)
	movq	80(%rsp), %rax
	movq	%rax, 16(%rsp)
	movups	64(%rsp), %xmm0
	movups	%xmm0, (%rsp)
	callq	github_com_spolu_warp_vendor_github_com_fatih_color.New
	.loc	2 17 8 is_stmt 0
	cmpl	$0, runtime.writeBarrier(%rip)
	je	.LBB0_15
	movl	$command_line_arguments.white, %edi
	movq	%rax, %rsi
	callq	runtime.writebarrierptr
	jmp	.LBB0_4
.LBB0_15:
	movq	%rax, command_line_arguments.white(%rip)
.LBB0_4:
	.loc	2 0 8
	movq	$1, 48(%rsp)
	leaq	48(%rsp), %rax
	.loc	2 18 15 is_stmt 1
	movq	%rax, 88(%rsp)
	movq	$1, 96(%rsp)
	movq	$1, 104(%rsp)
	movq	104(%rsp), %rax
	movq	%rax, 16(%rsp)
	movups	88(%rsp), %xmm0
	movups	%xmm0, (%rsp)
	callq	github_com_spolu_warp_vendor_github_com_fatih_color.New
	.loc	2 18 7 is_stmt 0
	cmpl	$0, runtime.writeBarrier(%rip)
	je	.LBB0_16
	movl	$command_line_arguments.bold, %edi
	movq	%rax, %rsi
	callq	runtime.writebarrierptr
	jmp	.LBB0_6
.LBB0_16:
	movq	%rax, command_line_arguments.bold(%rip)
.LBB0_6:
	.loc	2 0 7
	movq	$36, 40(%rsp)
	leaq	40(%rsp), %rax
	.loc	2 19 15 is_stmt 1
	movq	%rax, 112(%rsp)
	movq	$1, 120(%rsp)
	movq	$1, 128(%rsp)
	movq	128(%rsp), %rax
	movq	%rax, 16(%rsp)
	movups	112(%rsp), %xmm0
	movups	%xmm0, (%rsp)
	callq	github_com_spolu_warp_vendor_github_com_fatih_color.New
	.loc	2 19 7 is_stmt 0
	cmpl	$0, runtime.writeBarrier(%rip)
	je	.LBB0_17
	movl	$command_line_arguments.cyan, %edi
	movq	%rax, %rsi
	callq	runtime.writebarrierptr
	jmp	.LBB0_8
.LBB0_17:
	movq	%rax, command_line_arguments.cyan(%rip)
.LBB0_8:
	.loc	2 0 7
	movq	$33, 32(%rsp)
	leaq	32(%rsp), %rax
	.loc	2 20 17 is_stmt 1
	movq	%rax, 136(%rsp)
	movq	$1, 144(%rsp)
	movq	$1, 152(%rsp)
	movq	152(%rsp), %rax
	movq	%rax, 16(%rsp)
	movups	136(%rsp), %xmm0
	movups	%xmm0, (%rsp)
	callq	github_com_spolu_warp_vendor_github_com_fatih_color.New
	.loc	2 20 9 is_stmt 0
	cmpl	$0, runtime.writeBarrier(%rip)
	je	.LBB0_18
	movl	$command_line_arguments.yellow, %edi
	movq	%rax, %rsi
	callq	runtime.writebarrierptr
	jmp	.LBB0_10
.LBB0_18:
	movq	%rax, command_line_arguments.yellow(%rip)
.LBB0_10:
	.loc	2 0 9
	movq	$35, 24(%rsp)
	leaq	24(%rsp), %rax
	.loc	2 21 18 is_stmt 1
	movq	%rax, 160(%rsp)
	movq	$1, 168(%rsp)
	movq	$1, 176(%rsp)
	movq	176(%rsp), %rax
	movq	%rax, 16(%rsp)
	movups	160(%rsp), %xmm0
	movups	%xmm0, (%rsp)
	callq	github_com_spolu_warp_vendor_github_com_fatih_color.New
	.loc	2 21 10 is_stmt 0
	cmpl	$0, runtime.writeBarrier(%rip)
	je	.LBB0_19
	movl	$command_line_arguments.magenta, %edi
	movq	%rax, %rsi
	callq	runtime.writebarrierptr
	jmp	.LBB0_12
.LBB0_19:
	movq	%rax, command_line_arguments.magenta(%rip)
.LBB0_12:
	.loc	2 0 10
	movups	.Lconst.5(%rip), %xmm0
	movaps	%xmm0, 208(%rsp)
	leaq	208(%rsp), %rax
	.loc	2 22 18 is_stmt 1
	movq	%rax, 184(%rsp)
	movq	$2, 192(%rsp)
	movq	$2, 200(%rsp)
	movq	200(%rsp), %rax
	movq	%rax, 16(%rsp)
	movups	184(%rsp), %xmm0
	movups	%xmm0, (%rsp)
	callq	github_com_spolu_warp_vendor_github_com_fatih_color.New
	.loc	2 22 10 is_stmt 0
	cmpl	$0, runtime.writeBarrier(%rip)
	je	.LBB0_20
	movl	$command_line_arguments.redBold, %edi
	movq	%rax, %rsi
	callq	runtime.writebarrierptr
	addq	$232, %rsp
	.cfi_def_cfa_offset 8
	retq
.LBB0_20:
	.cfi_def_cfa_offset 240
	movq	%rax, command_line_arguments.redBold(%rip)
	addq	$232, %rsp
	.cfi_def_cfa_offset 8
	retq
.Ltmp1:
.Lfunc_end0:
	.size	command_line_arguments.command_line_arguments..init0, .Lfunc_end0-command_line_arguments.command_line_arguments..init0
	.cfi_endproc

	.section	.text.command_line_arguments.Normf,"ax",@progbits
	.globl	command_line_arguments.Normf
	.p2align	4, 0x90
	.type	command_line_arguments.Normf,@function
command_line_arguments.Normf:
.Lfunc_begin1:
	.loc	2 26 0 is_stmt 1
	.cfi_startproc
	cmpq	%fs:112, %rsp
	ja	.LBB1_2
	movq	%r10, %rax
	movabsq	$56, %r10
	movabsq	$24, %r11
	callq	__morestack
	retq
	movq	%rax, %r10
.LBB1_2:
	subq	$56, %rsp
	.cfi_def_cfa_offset 64
	movq	%rsi, %rax
	movq	%rdi, %rcx
.Ltmp2:
	.loc	2 27 6 prologue_end
	movq	80(%rsp), %rdx
	movq	%rdx, 16(%rsp)
	movaps	64(%rsp), %xmm0
	movups	%xmm0, (%rsp)
	leaq	32(%rsp), %rdi
	movq	%rcx, %rsi
.Ltmp3:
	movq	%rax, %rdx
.Ltmp4:
	callq	fmt.Printf
.Ltmp5:
	.loc	2 0 6 is_stmt 0
	addq	$56, %rsp
	.cfi_def_cfa_offset 8
	retq
.Ltmp6:
.Lfunc_end1:
	.size	command_line_arguments.Normf, .Lfunc_end1-command_line_arguments.Normf
	.cfi_endproc

	.section	.text.command_line_arguments.Boldf,"ax",@progbits
	.globl	command_line_arguments.Boldf
	.p2align	4, 0x90
	.type	command_line_arguments.Boldf,@function
command_line_arguments.Boldf:
.Lfunc_begin2:
	.loc	2 31 0 is_stmt 1
	.cfi_startproc
	cmpq	%fs:112, %rsp
	ja	.LBB2_2
	movq	%r10, %rax
	movabsq	$40, %r10
	movabsq	$24, %r11
	callq	__morestack
	retq
	movq	%rax, %r10
.LBB2_2:
	pushq	%r14
	.cfi_def_cfa_offset 16
	pushq	%rbx
	.cfi_def_cfa_offset 24
	subq	$24, %rsp
	.cfi_def_cfa_offset 48
	.cfi_offset %rbx, -24
	.cfi_offset %r14, -16
	movq	%rsi, %r14
	movq	%rdi, %rbx
.Ltmp7:
	.loc	2 32 2 prologue_end
	movq	command_line_arguments.bold(%rip), %rdi
	.loc	2 32 6 is_stmt 0
	callq	github_com_spolu_warp_vendor_github_com_fatih_color.Color.PrintfFunc
	movq	64(%rsp), %rcx
	movq	%rcx, 16(%rsp)
	movaps	48(%rsp), %xmm0
	movups	%xmm0, (%rsp)
	movq	%rax, %r10
	movq	%rbx, %rdi
.Ltmp8:
	movq	%r14, %rsi
.Ltmp9:
	callq	*(%rax)
.Ltmp10:
	.loc	2 0 6
	addq	$24, %rsp
	.cfi_def_cfa_offset 24
	popq	%rbx
	.cfi_def_cfa_offset 16
	popq	%r14
	.cfi_def_cfa_offset 8
	retq
.Ltmp11:
.Lfunc_end2:
	.size	command_line_arguments.Boldf, .Lfunc_end2-command_line_arguments.Boldf
	.cfi_endproc

	.section	.text.command_line_arguments.Valuf,"ax",@progbits
	.globl	command_line_arguments.Valuf
	.p2align	4, 0x90
	.type	command_line_arguments.Valuf,@function
command_line_arguments.Valuf:
.Lfunc_begin3:
	.loc	2 36 0 is_stmt 1
	.cfi_startproc
	cmpq	%fs:112, %rsp
	ja	.LBB3_2
	movq	%r10, %rax
	movabsq	$40, %r10
	movabsq	$24, %r11
	callq	__morestack
	retq
	movq	%rax, %r10
.LBB3_2:
	pushq	%r14
	.cfi_def_cfa_offset 16
	pushq	%rbx
	.cfi_def_cfa_offset 24
	subq	$24, %rsp
	.cfi_def_cfa_offset 48
	.cfi_offset %rbx, -24
	.cfi_offset %r14, -16
	movq	%rsi, %r14
	movq	%rdi, %rbx
.Ltmp12:
	.loc	2 37 2 prologue_end
	movq	command_line_arguments.cyan(%rip), %rdi
	.loc	2 37 6 is_stmt 0
	callq	github_com_spolu_warp_vendor_github_com_fatih_color.Color.PrintfFunc
	movq	64(%rsp), %rcx
	movq	%rcx, 16(%rsp)
	movaps	48(%rsp), %xmm0
	movups	%xmm0, (%rsp)
	movq	%rax, %r10
	movq	%rbx, %rdi
.Ltmp13:
	movq	%r14, %rsi
.Ltmp14:
	callq	*(%rax)
.Ltmp15:
	.loc	2 0 6
	addq	$24, %rsp
	.cfi_def_cfa_offset 24
	popq	%rbx
	.cfi_def_cfa_offset 16
	popq	%r14
	.cfi_def_cfa_offset 8
	retq
.Ltmp16:
.Lfunc_end3:
	.size	command_line_arguments.Valuf, .Lfunc_end3-command_line_arguments.Valuf
	.cfi_endproc

	.section	.text.command_line_arguments.Warnf,"ax",@progbits
	.globl	command_line_arguments.Warnf
	.p2align	4, 0x90
	.type	command_line_arguments.Warnf,@function
command_line_arguments.Warnf:
.Lfunc_begin4:
	.loc	2 41 0 is_stmt 1
	.cfi_startproc
	cmpq	%fs:112, %rsp
	ja	.LBB4_2
	movq	%r10, %rax
	movabsq	$40, %r10
	movabsq	$24, %r11
	callq	__morestack
	retq
	movq	%rax, %r10
.LBB4_2:
	pushq	%r14
	.cfi_def_cfa_offset 16
	pushq	%rbx
	.cfi_def_cfa_offset 24
	subq	$24, %rsp
	.cfi_def_cfa_offset 48
	.cfi_offset %rbx, -24
	.cfi_offset %r14, -16
	movq	%rsi, %r14
	movq	%rdi, %rbx
.Ltmp17:
	.loc	2 42 2 prologue_end
	movq	command_line_arguments.yellow(%rip), %rdi
	.loc	2 42 8 is_stmt 0
	callq	github_com_spolu_warp_vendor_github_com_fatih_color.Color.PrintfFunc
	movq	64(%rsp), %rcx
	movq	%rcx, 16(%rsp)
	movaps	48(%rsp), %xmm0
	movups	%xmm0, (%rsp)
	movq	%rax, %r10
	movq	%rbx, %rdi
.Ltmp18:
	movq	%r14, %rsi
.Ltmp19:
	callq	*(%rax)
.Ltmp20:
	.loc	2 0 8
	addq	$24, %rsp
	.cfi_def_cfa_offset 24
	popq	%rbx
	.cfi_def_cfa_offset 16
	popq	%r14
	.cfi_def_cfa_offset 8
	retq
.Ltmp21:
.Lfunc_end4:
	.size	command_line_arguments.Warnf, .Lfunc_end4-command_line_arguments.Warnf
	.cfi_endproc

	.section	.text.command_line_arguments.Errof,"ax",@progbits
	.globl	command_line_arguments.Errof
	.p2align	4, 0x90
	.type	command_line_arguments.Errof,@function
command_line_arguments.Errof:
.Lfunc_begin5:
	.loc	2 46 0 is_stmt 1
	.cfi_startproc
	cmpq	%fs:112, %rsp
	ja	.LBB5_2
	movq	%r10, %rax
	movabsq	$40, %r10
	movabsq	$24, %r11
	callq	__morestack
	retq
	movq	%rax, %r10
.LBB5_2:
	pushq	%r14
	.cfi_def_cfa_offset 16
	pushq	%rbx
	.cfi_def_cfa_offset 24
	subq	$24, %rsp
	.cfi_def_cfa_offset 48
	.cfi_offset %rbx, -24
	.cfi_offset %r14, -16
	movq	%rsi, %r14
	movq	%rdi, %rbx
.Ltmp22:
	.loc	2 47 2 prologue_end
	movq	command_line_arguments.redBold(%rip), %rdi
	.loc	2 47 9 is_stmt 0
	callq	github_com_spolu_warp_vendor_github_com_fatih_color.Color.PrintfFunc
	movq	64(%rsp), %rcx
	movq	%rcx, 16(%rsp)
	movaps	48(%rsp), %xmm0
	movups	%xmm0, (%rsp)
	movq	%rax, %r10
	movq	%rbx, %rdi
.Ltmp23:
	movq	%r14, %rsi
.Ltmp24:
	callq	*(%rax)
.Ltmp25:
	.loc	2 0 9
	addq	$24, %rsp
	.cfi_def_cfa_offset 24
	popq	%rbx
	.cfi_def_cfa_offset 16
	popq	%r14
	.cfi_def_cfa_offset 8
	retq
.Ltmp26:
.Lfunc_end5:
	.size	command_line_arguments.Errof, .Lfunc_end5-command_line_arguments.Errof
	.cfi_endproc

	.section	.text.command_line_arguments.Statf,"ax",@progbits
	.globl	command_line_arguments.Statf
	.p2align	4, 0x90
	.type	command_line_arguments.Statf,@function
command_line_arguments.Statf:
.Lfunc_begin6:
	.loc	2 51 0 is_stmt 1
	.cfi_startproc
	cmpq	%fs:112, %rsp
	ja	.LBB6_2
	movq	%r10, %rax
	movabsq	$40, %r10
	movabsq	$24, %r11
	callq	__morestack
	retq
	movq	%rax, %r10
.LBB6_2:
	pushq	%r14
	.cfi_def_cfa_offset 16
	pushq	%rbx
	.cfi_def_cfa_offset 24
	subq	$24, %rsp
	.cfi_def_cfa_offset 48
	.cfi_offset %rbx, -24
	.cfi_offset %r14, -16
	movq	%rsi, %r14
	movq	%rdi, %rbx
.Ltmp27:
	.loc	2 52 2 prologue_end
	movq	command_line_arguments.magenta(%rip), %rdi
	.loc	2 52 9 is_stmt 0
	callq	github_com_spolu_warp_vendor_github_com_fatih_color.Color.PrintfFunc
	movq	64(%rsp), %rcx
	movq	%rcx, 16(%rsp)
	movaps	48(%rsp), %xmm0
	movups	%xmm0, (%rsp)
	movq	%rax, %r10
	movq	%rbx, %rdi
.Ltmp28:
	movq	%r14, %rsi
.Ltmp29:
	callq	*(%rax)
.Ltmp30:
	.loc	2 0 9
	addq	$24, %rsp
	.cfi_def_cfa_offset 24
	popq	%rbx
	.cfi_def_cfa_offset 16
	popq	%r14
	.cfi_def_cfa_offset 8
	retq
.Ltmp31:
.Lfunc_end6:
	.size	command_line_arguments.Statf, .Lfunc_end6-command_line_arguments.Statf
	.cfi_endproc

	.section	.text.command_line_arguments..import,"ax",@progbits
	.globl	command_line_arguments..import
	.p2align	4, 0x90
	.type	command_line_arguments..import,@function
command_line_arguments..import:
.Lfunc_begin7:
	.loc	2 1 0 is_stmt 1
	.cfi_startproc
	cmpq	%fs:112, %rsp
	ja	.LBB7_2
	movq	%r10, %rax
	movabsq	$8, %r10
	movabsq	$0, %r11
	callq	__morestack
	retq
	movq	%rax, %r10
.LBB7_2:
	pushq	%rax
	.cfi_def_cfa_offset 16
.Ltmp32:
	.loc	3 1 1 prologue_end
	movl	$go..C0, %edi
	callq	runtime.registerGCRoots
	.loc	2 16 1
	callq	command_line_arguments.command_line_arguments..init0
	popq	%rax
	.cfi_def_cfa_offset 8
	retq
.Ltmp33:
.Lfunc_end7:
	.size	command_line_arguments..import, .Lfunc_end7-command_line_arguments..import
	.cfi_endproc

	.type	command_line_arguments.white,@object
	.section	.bss.command_line_arguments.white,"aw",@nobits
	.p2align	3
command_line_arguments.white:
	.quad	0
	.size	command_line_arguments.white, 8

	.type	command_line_arguments.bold,@object
	.section	.bss.command_line_arguments.bold,"aw",@nobits
	.p2align	3
command_line_arguments.bold:
	.quad	0
	.size	command_line_arguments.bold, 8

	.type	command_line_arguments.cyan,@object
	.section	.bss.command_line_arguments.cyan,"aw",@nobits
	.p2align	3
command_line_arguments.cyan:
	.quad	0
	.size	command_line_arguments.cyan, 8

	.type	command_line_arguments.yellow,@object
	.section	.bss.command_line_arguments.yellow,"aw",@nobits
	.p2align	3
command_line_arguments.yellow:
	.quad	0
	.size	command_line_arguments.yellow, 8

	.type	command_line_arguments.magenta,@object
	.section	.bss.command_line_arguments.magenta,"aw",@nobits
	.p2align	3
command_line_arguments.magenta:
	.quad	0
	.size	command_line_arguments.magenta, 8

	.type	command_line_arguments.redBold,@object
	.section	.bss.command_line_arguments.redBold,"aw",@nobits
	.p2align	3
command_line_arguments.redBold:
	.quad	0
	.size	command_line_arguments.redBold, 8

	.type	.Lconst.5,@object
	.section	.rodata.cst16,"aM",@progbits,16
	.p2align	3
.Lconst.5:
	.quad	31
	.quad	1
	.size	.Lconst.5, 16

	.type	command_line_arguments.command_line_arguments..init0..f,@object
	.section	.rodata.command_line_arguments.command_line_arguments..init0..f,"a",@progbits
	.globl	command_line_arguments.command_line_arguments..init0..f
	.p2align	3
command_line_arguments.command_line_arguments..init0..f:
	.quad	command_line_arguments.command_line_arguments..init0
	.size	command_line_arguments.command_line_arguments..init0..f, 8

	.type	command_line_arguments.Normf..f,@object
	.section	.rodata.command_line_arguments.Normf..f,"a",@progbits
	.globl	command_line_arguments.Normf..f
	.p2align	3
command_line_arguments.Normf..f:
	.quad	command_line_arguments.Normf
	.size	command_line_arguments.Normf..f, 8

	.type	command_line_arguments.Boldf..f,@object
	.section	.rodata.command_line_arguments.Boldf..f,"a",@progbits
	.globl	command_line_arguments.Boldf..f
	.p2align	3
command_line_arguments.Boldf..f:
	.quad	command_line_arguments.Boldf
	.size	command_line_arguments.Boldf..f, 8

	.type	command_line_arguments.Valuf..f,@object
	.section	.rodata.command_line_arguments.Valuf..f,"a",@progbits
	.globl	command_line_arguments.Valuf..f
	.p2align	3
command_line_arguments.Valuf..f:
	.quad	command_line_arguments.Valuf
	.size	command_line_arguments.Valuf..f, 8

	.type	command_line_arguments.Warnf..f,@object
	.section	.rodata.command_line_arguments.Warnf..f,"a",@progbits
	.globl	command_line_arguments.Warnf..f
	.p2align	3
command_line_arguments.Warnf..f:
	.quad	command_line_arguments.Warnf
	.size	command_line_arguments.Warnf..f, 8

	.type	command_line_arguments.Errof..f,@object
	.section	.rodata.command_line_arguments.Errof..f,"a",@progbits
	.globl	command_line_arguments.Errof..f
	.p2align	3
command_line_arguments.Errof..f:
	.quad	command_line_arguments.Errof
	.size	command_line_arguments.Errof..f, 8

	.type	command_line_arguments.Statf..f,@object
	.section	.rodata.command_line_arguments.Statf..f,"a",@progbits
	.globl	command_line_arguments.Statf..f
	.p2align	3
command_line_arguments.Statf..f:
	.quad	command_line_arguments.Statf
	.size	command_line_arguments.Statf..f, 8

	.type	gcbits..ba,@object
	.section	.rodata.gcbits..ba,"aG",@progbits,gcbits..ba,comdat
	.weak	gcbits..ba
gcbits..ba:
	.byte	1
	.size	gcbits..ba, 1

	.type	go..C0,@object
	.section	.data.go..C0,"aw",@progbits
	.p2align	4
go..C0:
	.quad	0
	.quad	6
	.quad	command_line_arguments.white
	.quad	8
	.quad	8
	.quad	gcbits..ba
	.quad	command_line_arguments.bold
	.quad	8
	.quad	8
	.quad	gcbits..ba
	.quad	command_line_arguments.cyan
	.quad	8
	.quad	8
	.quad	gcbits..ba
	.quad	command_line_arguments.yellow
	.quad	8
	.quad	8
	.quad	gcbits..ba
	.quad	command_line_arguments.magenta
	.quad	8
	.quad	8
	.quad	gcbits..ba
	.quad	command_line_arguments.redBold
	.quad	8
	.quad	8
	.quad	gcbits..ba
	.size	go..C0, 208

	.section	".note.GNU-split-stack","",@progbits
	.section	".note.GNU-stack","",@progbits