; ModuleID = 'gomodule'
source_filename = "gomodule"
target datalayout = "e-m:e-i64:64-f80:128-n8:16:32:64-S128"
target triple = "x86_64-unknown-linux-gnu"

module asm "\09.section \22.go_export\22,\22e\22,@progbits"
module asm "\09.ascii \22v2;\5Cn\22"
module asm "\09.ascii \22package \22"
module asm "\09.ascii \22template\22"
module asm "\09.ascii \22;\5Cn\22"
module asm "\09.ascii \22pkgpath \22"
module asm "\09.ascii \22command-line-arguments\22"
module asm "\09.ascii \22;\5Cn\22"
module asm "\09.ascii \22import \22"
module asm "\09.ascii \22fmt\22"
module asm "\09.ascii \22 \22"
module asm "\09.ascii \22fmt\22"
module asm "\09.ascii \22 \5C\22\22"
module asm "\09.ascii \22fmt\22"
module asm "\09.ascii \22\5C\22;\5Cn\22"
module asm "\09.ascii \22import \22"
module asm "\09.ascii \22strings\22"
module asm "\09.ascii \22 \22"
module asm "\09.ascii \22strings\22"
module asm "\09.ascii \22 \5C\22\22"
module asm "\09.ascii \22strings\22"
module asm "\09.ascii \22\5C\22;\5Cn\22"
module asm "\09.ascii \22init\22"
module asm "\09.ascii \22 \22"
module asm "\09.ascii \22fmt\22"
module asm "\09.ascii \22 \22"
module asm "\09.ascii \22fmt..import\22"
module asm "\09.ascii \22 \22"
module asm "\09.ascii \22poll\22"
module asm "\09.ascii \22 \22"
module asm "\09.ascii \22internal_poll..import\22"
module asm "\09.ascii \22 \22"
module asm "\09.ascii \22testlog\22"
module asm "\09.ascii \22 \22"
module asm "\09.ascii \22internal_testlog..import\22"
module asm "\09.ascii \22 \22"
module asm "\09.ascii \22io\22"
module asm "\09.ascii \22 \22"
module asm "\09.ascii \22io..import\22"
module asm "\09.ascii \22 \22"
module asm "\09.ascii \22os\22"
module asm "\09.ascii \22 \22"
module asm "\09.ascii \22os..import\22"
module asm "\09.ascii \22 \22"
module asm "\09.ascii \22reflect\22"
module asm "\09.ascii \22 \22"
module asm "\09.ascii \22reflect..import\22"
module asm "\09.ascii \22 \22"
module asm "\09.ascii \22runtime\22"
module asm "\09.ascii \22 \22"
module asm "\09.ascii \22runtime..import\22"
module asm "\09.ascii \22 \22"
module asm "\09.ascii \22sys\22"
module asm "\09.ascii \22 \22"
module asm "\09.ascii \22runtime_internal_sys..import\22"
module asm "\09.ascii \22 \22"
module asm "\09.ascii \22strconv\22"
module asm "\09.ascii \22 \22"
module asm "\09.ascii \22strconv..import\22"
module asm "\09.ascii \22 \22"
module asm "\09.ascii \22sync\22"
module asm "\09.ascii \22 \22"
module asm "\09.ascii \22sync..import\22"
module asm "\09.ascii \22 \22"
module asm "\09.ascii \22syscall\22"
module asm "\09.ascii \22 \22"
module asm "\09.ascii \22syscall..import\22"
module asm "\09.ascii \22 \22"
module asm "\09.ascii \22time\22"
module asm "\09.ascii \22 \22"
module asm "\09.ascii \22time..import\22"
module asm "\09.ascii \22 \22"
module asm "\09.ascii \22unicode\22"
module asm "\09.ascii \22 \22"
module asm "\09.ascii \22unicode..import\22"
module asm "\09.ascii \22;\5Cn\22"
module asm "\09.ascii \22init_graph\22"
module asm "\09.ascii \22 \22"
module asm "\09.ascii \220\22"
module asm "\09.ascii \22 \22"
module asm "\09.ascii \221\22"
module asm "\09.ascii \22 \22"
module asm "\09.ascii \220\22"
module asm "\09.ascii \22 \22"
module asm "\09.ascii \222\22"
module asm "\09.ascii \22 \22"
module asm "\09.ascii \220\22"
module asm "\09.ascii \22 \22"
module asm "\09.ascii \223\22"
module asm "\09.ascii \22 \22"
module asm "\09.ascii \220\22"
module asm "\09.ascii \22 \22"
module asm "\09.ascii \224\22"
module asm "\09.ascii \22 \22"
module asm "\09.ascii \220\22"
module asm "\09.ascii \22 \22"
module asm "\09.ascii \225\22"
module asm "\09.ascii \22 \22"
module asm "\09.ascii \220\22"
module asm "\09.ascii \22 \22"
module asm "\09.ascii \226\22"
module asm "\09.ascii \22 \22"
module asm "\09.ascii \220\22"
module asm "\09.ascii \22 \22"
module asm "\09.ascii \227\22"
module asm "\09.ascii \22 \22"
module asm "\09.ascii \220\22"
module asm "\09.ascii \22 \22"
module asm "\09.ascii \228\22"
module asm "\09.ascii \22 \22"
module asm "\09.ascii \220\22"
module asm "\09.ascii \22 \22"
module asm "\09.ascii \229\22"
module asm "\09.ascii \22 \22"
module asm "\09.ascii \220\22"
module asm "\09.ascii \22 \22"
module asm "\09.ascii \2210\22"
module asm "\09.ascii \22 \22"
module asm "\09.ascii \220\22"
module asm "\09.ascii \22 \22"
module asm "\09.ascii \2211\22"
module asm "\09.ascii \22 \22"
module asm "\09.ascii \220\22"
module asm "\09.ascii \22 \22"
module asm "\09.ascii \2212\22"
module asm "\09.ascii \22 \22"
module asm "\09.ascii \221\22"
module asm "\09.ascii \22 \22"
module asm "\09.ascii \223\22"
module asm "\09.ascii \22 \22"
module asm "\09.ascii \221\22"
module asm "\09.ascii \22 \22"
module asm "\09.ascii \226\22"
module asm "\09.ascii \22 \22"
module asm "\09.ascii \221\22"
module asm "\09.ascii \22 \22"
module asm "\09.ascii \227\22"
module asm "\09.ascii \22 \22"
module asm "\09.ascii \221\22"
module asm "\09.ascii \22 \22"
module asm "\09.ascii \229\22"
module asm "\09.ascii \22 \22"
module asm "\09.ascii \221\22"
module asm "\09.ascii \22 \22"
module asm "\09.ascii \2210\22"
module asm "\09.ascii \22 \22"
module asm "\09.ascii \221\22"
module asm "\09.ascii \22 \22"
module asm "\09.ascii \2211\22"
module asm "\09.ascii \22 \22"
module asm "\09.ascii \223\22"
module asm "\09.ascii \22 \22"
module asm "\09.ascii \226\22"
module asm "\09.ascii \22 \22"
module asm "\09.ascii \223\22"
module asm "\09.ascii \22 \22"
module asm "\09.ascii \227\22"
module asm "\09.ascii \22 \22"
module asm "\09.ascii \223\22"
module asm "\09.ascii \22 \22"
module asm "\09.ascii \229\22"
module asm "\09.ascii \22 \22"
module asm "\09.ascii \224\22"
module asm "\09.ascii \22 \22"
module asm "\09.ascii \221\22"
module asm "\09.ascii \22 \22"
module asm "\09.ascii \224\22"
module asm "\09.ascii \22 \22"
module asm "\09.ascii \222\22"
module asm "\09.ascii \22 \22"
module asm "\09.ascii \224\22"
module asm "\09.ascii \22 \22"
module asm "\09.ascii \223\22"
module asm "\09.ascii \22 \22"
module asm "\09.ascii \224\22"
module asm "\09.ascii \22 \22"
module asm "\09.ascii \226\22"
module asm "\09.ascii \22 \22"
module asm "\09.ascii \224\22"
module asm "\09.ascii \22 \22"
module asm "\09.ascii \227\22"
module asm "\09.ascii \22 \22"
module asm "\09.ascii \224\22"
module asm "\09.ascii \22 \22"
module asm "\09.ascii \229\22"
module asm "\09.ascii \22 \22"
module asm "\09.ascii \224\22"
module asm "\09.ascii \22 \22"
module asm "\09.ascii \2210\22"
module asm "\09.ascii \22 \22"
module asm "\09.ascii \224\22"
module asm "\09.ascii \22 \22"
module asm "\09.ascii \2211\22"
module asm "\09.ascii \22 \22"
module asm "\09.ascii \225\22"
module asm "\09.ascii \22 \22"
module asm "\09.ascii \226\22"
module asm "\09.ascii \22 \22"
module asm "\09.ascii \225\22"
module asm "\09.ascii \22 \22"
module asm "\09.ascii \227\22"
module asm "\09.ascii \22 \22"
module asm "\09.ascii \225\22"
module asm "\09.ascii \22 \22"
module asm "\09.ascii \228\22"
module asm "\09.ascii \22 \22"
module asm "\09.ascii \225\22"
module asm "\09.ascii \22 \22"
module asm "\09.ascii \229\22"
module asm "\09.ascii \22 \22"
module asm "\09.ascii \225\22"
module asm "\09.ascii \22 \22"
module asm "\09.ascii \2212\22"
module asm "\09.ascii \22 \22"
module asm "\09.ascii \226\22"
module asm "\09.ascii \22 \22"
module asm "\09.ascii \227\22"
module asm "\09.ascii \22 \22"
module asm "\09.ascii \228\22"
module asm "\09.ascii \22 \22"
module asm "\09.ascii \226\22"
module asm "\09.ascii \22 \22"
module asm "\09.ascii \228\22"
module asm "\09.ascii \22 \22"
module asm "\09.ascii \227\22"
module asm "\09.ascii \22 \22"
module asm "\09.ascii \229\22"
module asm "\09.ascii \22 \22"
module asm "\09.ascii \226\22"
module asm "\09.ascii \22 \22"
module asm "\09.ascii \229\22"
module asm "\09.ascii \22 \22"
module asm "\09.ascii \227\22"
module asm "\09.ascii \22 \22"
module asm "\09.ascii \2210\22"
module asm "\09.ascii \22 \22"
module asm "\09.ascii \226\22"
module asm "\09.ascii \22 \22"
module asm "\09.ascii \2210\22"
module asm "\09.ascii \22 \22"
module asm "\09.ascii \227\22"
module asm "\09.ascii \22 \22"
module asm "\09.ascii \2210\22"
module asm "\09.ascii \22 \22"
module asm "\09.ascii \229\22"
module asm "\09.ascii \22 \22"
module asm "\09.ascii \2211\22"
module asm "\09.ascii \22 \22"
module asm "\09.ascii \226\22"
module asm "\09.ascii \22 \22"
module asm "\09.ascii \2211\22"
module asm "\09.ascii \22 \22"
module asm "\09.ascii \227\22"
module asm "\09.ascii \22 \22"
module asm "\09.ascii \2211\22"
module asm "\09.ascii \22 \22"
module asm "\09.ascii \229\22"
module asm "\09.ascii \22 \22"
module asm "\09.ascii \2211\22"
module asm "\09.ascii \22 \22"
module asm "\09.ascii \2210\22"
module asm "\09.ascii \22;\5Cn\22"
module asm "\09.ascii \22func \22"
module asm "\09.ascii \22Command\22"
module asm "\09.ascii \22 (\22"
module asm "\09.ascii \22format\22"
module asm "\09.ascii \22 \22"
module asm "\09.ascii \22<esc:0x1>\22"
module asm "\09.ascii \22 \22"
module asm "\09.ascii \22<type -16>\22"
module asm "\09.ascii \22, \22"
module asm "\09.ascii \22a\22"
module asm "\09.ascii \22 \22"
module asm "\09.ascii \22<esc:0x9>\22"
module asm "\09.ascii \22 \22"
module asm "\09.ascii \22...\22"
module asm "\09.ascii \22<type 1 \22"
module asm "\09.ascii \22interface { \22"
module asm "\09.ascii \22}\22"
module asm "\09.ascii \22>\22"
module asm "\09.ascii \22)\22"
module asm "\09.ascii \22 \22"
module asm "\09.ascii \22<type -16>\22"
module asm "\09.ascii \22;\5Cn\22"
module asm "\09.ascii \22func \22"
module asm "\09.ascii \22Echo\22"
module asm "\09.ascii \22 (\22"
module asm "\09.ascii \22format\22"
module asm "\09.ascii \22 \22"
module asm "\09.ascii \22<esc:0x1>\22"
module asm "\09.ascii \22 \22"
module asm "\09.ascii \22<type -16>\22"
module asm "\09.ascii \22, \22"
module asm "\09.ascii \22a\22"
module asm "\09.ascii \22 \22"
module asm "\09.ascii \22<esc:0x9>\22"
module asm "\09.ascii \22 \22"
module asm "\09.ascii \22...\22"
module asm "\09.ascii \22<type 2 \22"
module asm "\09.ascii \22interface { \22"
module asm "\09.ascii \22}\22"
module asm "\09.ascii \22>\22"
module asm "\09.ascii \22)\22"
module asm "\09.ascii \22 \22"
module asm "\09.ascii \22<type -16>\22"
module asm "\09.ascii \22;\5Cn\22"
module asm "\09.ascii \22func \22"
module asm "\09.ascii \22Escape\22"
module asm "\09.ascii \22 (\22"
module asm "\09.ascii \22s\22"
module asm "\09.ascii \22 \22"
module asm "\09.ascii \22<type -16>\22"
module asm "\09.ascii \22)\22"
module asm "\09.ascii \22 \22"
module asm "\09.ascii \22<type -16>\22"
module asm "\09.ascii \22;\5Cn\22"
module asm "\09.ascii \22func \22"
module asm "\09.ascii \22Script\22"
module asm "\09.ascii \22 (\22"
module asm "\09.ascii \22commands\22"
module asm "\09.ascii \22 \22"
module asm "\09.ascii \22<esc:0x1>\22"
module asm "\09.ascii \22 \22"
module asm "\09.ascii \22...\22"
module asm "\09.ascii \22<type -16>\22"
module asm "\09.ascii \22)\22"
module asm "\09.ascii \22 \22"
module asm "\09.ascii \22<type 3 \22"
module asm "\09.ascii \22[\22"
module asm "\09.ascii \22] \22"
module asm "\09.ascii \22<type -20>\22"
module asm "\09.ascii \22>\22"
module asm "\09.ascii \22;\5Cn\22"
module asm "\09.ascii \22checksum 142E5EA54727744AE67C3F96A47728247AA1720F;\5Cn\22"
module asm "\09.text"

%functionDescriptor.0 = type { i64 }
%_type.0 = type { i64, i64, i32, i8, i8, i8, %__go_descriptor.0*, %__go_descriptor.1*, i8*, { i8*, i64 }*, %uncommonType.0*, %_type.0* }
%__go_descriptor.0 = type { i64 (i8*, i8*, i64)* }
%__go_descriptor.1 = type { i8 (i8*, i8*, i8*)* }
%uncommonType.0 = type { { i8*, i64 }*, { i8*, i64 }*, %IPST.2 }
%IPST.2 = type { %method.0*, i64, i64 }
%method.0 = type { { i8*, i64 }*, { i8*, i64 }*, %_type.0*, %_type.0*, i8* }
%PtrType.0 = type { %_type.0, %_type.0* }
%ArrayType.0 = type { %_type.0, %_type.0*, %_type.0*, i64 }
%SliceType.0 = type { %_type.0, %_type.0* }
%IPST.0 = type { { %_type.0*, i8* }*, i64, i64 }
%IPST.1 = type { { i8*, i64 }*, i64, i64 }

$string..d = comdat any

$gcbits..ba = comdat any

$type...1string = comdat any

$type...612x.7uint8 = comdat any

$uint8..d = comdat any

$type...1uint8 = comdat any

$type...6.7uint8 = comdat any

@const.0 = private constant [2 x i8] c"'\00", align 1
@const.1 = private constant [5 x i8] c"'\5C''\00", align 1
@command_line_arguments.Escape..f = local_unnamed_addr constant %functionDescriptor.0 { i64 ptrtoint ({ i64, i64 } (i8*, i64, i64)* @command_line_arguments.Escape to i64) }
@string..d = weak constant %_type.0 { i64 16, i64 8, i32 -1998952806, i8 24, i8 8, i8 8, %__go_descriptor.0* bitcast (%functionDescriptor.0* @runtime.strhash..f to %__go_descriptor.0*), %__go_descriptor.1* bitcast (%functionDescriptor.0* @runtime.strequal..f to %__go_descriptor.1*), i8* getelementptr inbounds ([1 x i8], [1 x i8]* @gcbits..ba, i32 0, i32 0), { i8*, i64 }* @go..C1, %uncommonType.0* @go..C4, %_type.0* getelementptr inbounds (%PtrType.0, %PtrType.0* @type...1string, i32 0, i32 0) }, comdat
@runtime.strhash..f = external constant %functionDescriptor.0
@runtime.strequal..f = external constant %functionDescriptor.0
@gcbits..ba = weak constant [1 x i8] c"\01", comdat
@const.5 = private constant [7 x i8] c"string\00", align 1
@go..C1 = internal constant { i8*, i64 } { i8* getelementptr inbounds ([7 x i8], [7 x i8]* @const.5, i32 0, i32 0), i64 6 }
@go..C2 = internal constant { i8*, i64 } { i8* getelementptr inbounds ([7 x i8], [7 x i8]* @const.5, i32 0, i32 0), i64 6 }
@go..C3 = internal global [1 x %method.0] zeroinitializer
@go..C4 = internal constant %uncommonType.0 { { i8*, i64 }* @go..C2, { i8*, i64 }* null, %IPST.2 { %method.0* getelementptr inbounds ([1 x %method.0], [1 x %method.0]* @go..C3, i32 0, i32 0), i64 0, i64 0 } }
@type...1string = weak constant %PtrType.0 { %_type.0 { i64 8, i64 8, i32 -1918473815, i8 54, i8 8, i8 8, %__go_descriptor.0* bitcast (%functionDescriptor.0* @runtime.memhash64..f to %__go_descriptor.0*), %__go_descriptor.1* bitcast (%functionDescriptor.0* @runtime.memequal64..f to %__go_descriptor.1*), i8* getelementptr inbounds ([1 x i8], [1 x i8]* @gcbits..ba, i32 0, i32 0), { i8*, i64 }* @go..C5, %uncommonType.0* null, %_type.0* null }, %_type.0* @string..d }, comdat
@runtime.memhash64..f = external constant %functionDescriptor.0
@runtime.memequal64..f = external constant %functionDescriptor.0
@const.6 = private constant [8 x i8] c"*string\00", align 1
@go..C5 = internal constant { i8*, i64 } { i8* getelementptr inbounds ([8 x i8], [8 x i8]* @const.6, i32 0, i32 0), i64 7 }
@const.7 = private constant [11 x i8] c"echo \22%s\22\0A\00", align 1
@command_line_arguments.Echo..f = local_unnamed_addr constant %functionDescriptor.0 { i64 ptrtoint ({ i64, i64 } (i8*, i64, i64, %IPST.0*)* @command_line_arguments.Echo to i64) }
@const.9 = private constant [4 x i8] c"%s\0A\00", align 1
@command_line_arguments.Command..f = local_unnamed_addr constant %functionDescriptor.0 { i64 ptrtoint ({ i64, i64 } (i8*, i64, i64, %IPST.0*)* @command_line_arguments.Command to i64) }
@type...612x.7uint8 = weak constant %ArrayType.0 { %_type.0 { i64 12, i64 0, i32 529264193, i8 -111, i8 1, i8 1, %__go_descriptor.0* null, %__go_descriptor.1* null, i8* null, { i8*, i64 }* @go..C6, %uncommonType.0* null, %_type.0* null }, %_type.0* @uint8..d, %_type.0* getelementptr inbounds (%SliceType.0, %SliceType.0* @type...6.7uint8, i32 0, i32 0), i64 12 }, comdat
@const.11 = private constant [10 x i8] c"[12]uint8\00", align 1
@go..C6 = internal constant { i8*, i64 } { i8* getelementptr inbounds ([10 x i8], [10 x i8]* @const.11, i32 0, i32 0), i64 9 }
@uint8..d = weak constant %_type.0 { i64 1, i64 0, i32 264632089, i8 -120, i8 1, i8 1, %__go_descriptor.0* bitcast (%functionDescriptor.0* @runtime.memhash8..f to %__go_descriptor.0*), %__go_descriptor.1* bitcast (%functionDescriptor.0* @runtime.memequal8..f to %__go_descriptor.1*), i8* null, { i8*, i64 }* @go..C7, %uncommonType.0* @go..C10, %_type.0* getelementptr inbounds (%PtrType.0, %PtrType.0* @type...1uint8, i32 0, i32 0) }, comdat
@runtime.memhash8..f = external constant %functionDescriptor.0
@runtime.memequal8..f = external constant %functionDescriptor.0
@const.12 = private constant [6 x i8] c"uint8\00", align 1
@go..C7 = internal constant { i8*, i64 } { i8* getelementptr inbounds ([6 x i8], [6 x i8]* @const.12, i32 0, i32 0), i64 5 }
@go..C8 = internal constant { i8*, i64 } { i8* getelementptr inbounds ([6 x i8], [6 x i8]* @const.12, i32 0, i32 0), i64 5 }
@go..C9 = internal global [1 x %method.0] zeroinitializer
@go..C10 = internal constant %uncommonType.0 { { i8*, i64 }* @go..C8, { i8*, i64 }* null, %IPST.2 { %method.0* getelementptr inbounds ([1 x %method.0], [1 x %method.0]* @go..C9, i32 0, i32 0), i64 0, i64 0 } }
@type...1uint8 = weak constant %PtrType.0 { %_type.0 { i64 8, i64 8, i32 -60853863, i8 54, i8 8, i8 8, %__go_descriptor.0* bitcast (%functionDescriptor.0* @runtime.memhash64..f to %__go_descriptor.0*), %__go_descriptor.1* bitcast (%functionDescriptor.0* @runtime.memequal64..f to %__go_descriptor.1*), i8* getelementptr inbounds ([1 x i8], [1 x i8]* @gcbits..ba, i32 0, i32 0), { i8*, i64 }* @go..C11, %uncommonType.0* null, %_type.0* null }, %_type.0* @uint8..d }, comdat
@const.13 = private constant [7 x i8] c"*uint8\00", align 1
@go..C11 = internal constant { i8*, i64 } { i8* getelementptr inbounds ([7 x i8], [7 x i8]* @const.13, i32 0, i32 0), i64 6 }
@type...6.7uint8 = weak constant %SliceType.0 { %_type.0 { i64 24, i64 8, i32 264632103, i8 23, i8 8, i8 8, %__go_descriptor.0* null, %__go_descriptor.1* null, i8* getelementptr inbounds ([1 x i8], [1 x i8]* @gcbits..ba, i32 0, i32 0), { i8*, i64 }* @go..C12, %uncommonType.0* null, %_type.0* null }, %_type.0* @uint8..d }, comdat
@const.14 = private constant [8 x i8] c"[]uint8\00", align 1
@go..C12 = internal constant { i8*, i64 } { i8* getelementptr inbounds ([8 x i8], [8 x i8]* @const.14, i32 0, i32 0), i64 7 }
@const.15 = private unnamed_addr constant [12 x i8] c"#!/bin/bash\0A"
@command_line_arguments.Script..f = local_unnamed_addr constant %functionDescriptor.0 { i64 ptrtoint (void ({ i8*, i64, i64 }*, i8*, %IPST.1*)* @command_line_arguments.Script to i64) }

define { i64, i64 } @command_line_arguments.Escape(i8* nest nocapture readnone %nest.0, i64 %s.chunk0, i64 %s.chunk1) #0 !dbg !4 {
entry:
  call void @llvm.dbg.value(metadata i64 %s.chunk0, metadata !16, metadata !DIExpression(DW_OP_LLVM_fragment, 0, 64)), !dbg !17
  call void @llvm.dbg.value(metadata i64 %s.chunk1, metadata !16, metadata !DIExpression(DW_OP_LLVM_fragment, 64, 64)), !dbg !17
  %call.0 = call { i64, i64 } @strings.Replace(i8* nest undef, i64 %s.chunk0, i64 %s.chunk1, i64 ptrtoint ([2 x i8]* @const.0 to i64), i64 1, i64 ptrtoint ([5 x i8]* @const.1 to i64), i64 4, i64 -1), !dbg !18
  ret { i64, i64 } %call.0, !dbg !19
}

declare { i64, i64 } @strings.Replace(i8*, i64, i64, i64, i64, i64, i64, i64) local_unnamed_addr #0

; Function Attrs: argmemonly nounwind
declare void @llvm.memcpy.p0i8.p0i8.i64(i8* nocapture writeonly, i8* nocapture readonly, i64, i1) #1

; Function Attrs: nounwind readnone speculatable
declare void @llvm.dbg.declare(metadata, metadata, metadata) #2

define { i64, i64 } @command_line_arguments.Echo(i8* nest nocapture readnone %nest.1, i64 %format.chunk0, i64 %format.chunk1, %IPST.0* byval %a) #0 !dbg !20 {
entry:
  %tmp.1 = alloca %IPST.0, align 8
  call void @llvm.dbg.declare(metadata %IPST.0* %a, metadata !84, metadata !DIExpression()), !dbg !85
  %tmpv.2 = alloca { i8*, i64 }, align 8
  %tmpv.3 = alloca [1 x { %_type.0*, i8* }], align 8
  call void @llvm.dbg.value(metadata i64 %format.chunk0, metadata !86, metadata !DIExpression(DW_OP_LLVM_fragment, 0, 64)), !dbg !87
  call void @llvm.dbg.value(metadata i64 %format.chunk1, metadata !86, metadata !DIExpression(DW_OP_LLVM_fragment, 64, 64)), !dbg !87
  %call.1 = call { i64, i64 } @fmt.Sprintf(i8* nest undef, i64 %format.chunk0, i64 %format.chunk1, %IPST.0* byval nonnull %a), !dbg !88
  %call.1.fca.0.extract = extractvalue { i64, i64 } %call.1, 0, !dbg !88
  %call.1.fca.1.extract = extractvalue { i64, i64 } %call.1, 1, !dbg !88
  call void @llvm.dbg.value(metadata i64 %call.1.fca.0.extract, metadata !90, metadata !DIExpression(DW_OP_LLVM_fragment, 0, 64)), !dbg !91
  call void @llvm.dbg.value(metadata i64 %call.1.fca.1.extract, metadata !90, metadata !DIExpression(DW_OP_LLVM_fragment, 64, 64)), !dbg !91
  %call.2 = call i8* @runtime.newobject(i8* nest undef, %_type.0* nonnull @string..d), !dbg !92
  %s.sroa.0.0.cast.20.sroa_cast = bitcast { i8*, i64 }* %tmpv.2 to i64*
  store i64 %call.1.fca.0.extract, i64* %s.sroa.0.0.cast.20.sroa_cast, align 8
  %s.sroa.4.0.cast.20.sroa_idx6 = getelementptr inbounds { i8*, i64 }, { i8*, i64 }* %tmpv.2, i64 0, i32 1
  store i64 %call.1.fca.1.extract, i64* %s.sroa.4.0.cast.20.sroa_idx6, align 8
  %cast.23 = bitcast { i8*, i64 }* %tmpv.2 to i8*, !dbg !92
  call void @runtime.typedmemmove(i8* nest undef, %_type.0* nonnull @string..d, i8* %call.2, i8* nonnull %cast.23), !dbg !92
  %tmp.0.sroa.0.0.cast.25.sroa_idx = getelementptr inbounds [1 x { %_type.0*, i8* }], [1 x { %_type.0*, i8* }]* %tmpv.3, i64 0, i64 0, i32 0, !dbg !92
  store %_type.0* @string..d, %_type.0** %tmp.0.sroa.0.0.cast.25.sroa_idx, align 8, !dbg !92
  %tmp.0.sroa.2.0.cast.25.sroa_idx10 = getelementptr inbounds [1 x { %_type.0*, i8* }], [1 x { %_type.0*, i8* }]* %tmpv.3, i64 0, i64 0, i32 1, !dbg !92
  store i8* %call.2, i8** %tmp.0.sroa.2.0.cast.25.sroa_idx10, align 8, !dbg !92
  %field.2 = getelementptr inbounds %IPST.0, %IPST.0* %tmp.1, i64 0, i32 0, !dbg !92
  %cast.28 = getelementptr inbounds [1 x { %_type.0*, i8* }], [1 x { %_type.0*, i8* }]* %tmpv.3, i64 0, i64 0, !dbg !92
  store { %_type.0*, i8* }* %cast.28, { %_type.0*, i8* }** %field.2, align 8, !dbg !92
  %field.3 = getelementptr inbounds %IPST.0, %IPST.0* %tmp.1, i64 0, i32 1, !dbg !92
  store i64 1, i64* %field.3, align 8, !dbg !92
  %field.4 = getelementptr inbounds %IPST.0, %IPST.0* %tmp.1, i64 0, i32 2, !dbg !92
  store i64 1, i64* %field.4, align 8, !dbg !92
  %call.3 = call { i64, i64 } @fmt.Sprintf(i8* nest undef, i64 ptrtoint ([11 x i8]* @const.7 to i64), i64 10, %IPST.0* byval nonnull %tmp.1), !dbg !92
  ret { i64, i64 } %call.3, !dbg !93
}

declare { i64, i64 } @fmt.Sprintf(i8*, i64, i64, %IPST.0*) local_unnamed_addr #0

declare i8* @runtime.newobject(i8*, %_type.0*) local_unnamed_addr #0

declare void @runtime.typedmemmove(i8*, %_type.0*, i8*, i8*) local_unnamed_addr #0

define { i64, i64 } @command_line_arguments.Command(i8* nest nocapture readnone %nest.2, i64 %format.chunk0, i64 %format.chunk1, %IPST.0* byval %a) #0 !dbg !94 {
entry:
  %tmp.3 = alloca %IPST.0, align 8
  call void @llvm.dbg.declare(metadata %IPST.0* %a, metadata !95, metadata !DIExpression()), !dbg !96
  %tmpv.6 = alloca { i8*, i64 }, align 8
  %tmpv.7 = alloca [1 x { %_type.0*, i8* }], align 8
  call void @llvm.dbg.value(metadata i64 %format.chunk0, metadata !97, metadata !DIExpression(DW_OP_LLVM_fragment, 0, 64)), !dbg !98
  call void @llvm.dbg.value(metadata i64 %format.chunk1, metadata !97, metadata !DIExpression(DW_OP_LLVM_fragment, 64, 64)), !dbg !98
  %call.4 = call { i64, i64 } @fmt.Sprintf(i8* nest undef, i64 %format.chunk0, i64 %format.chunk1, %IPST.0* byval nonnull %a), !dbg !99
  %call.4.fca.0.extract = extractvalue { i64, i64 } %call.4, 0, !dbg !99
  %call.4.fca.1.extract = extractvalue { i64, i64 } %call.4, 1, !dbg !99
  call void @llvm.dbg.value(metadata i64 %call.4.fca.0.extract, metadata !101, metadata !DIExpression(DW_OP_LLVM_fragment, 0, 64)), !dbg !102
  call void @llvm.dbg.value(metadata i64 %call.4.fca.1.extract, metadata !101, metadata !DIExpression(DW_OP_LLVM_fragment, 64, 64)), !dbg !102
  %call.5 = call i8* @runtime.newobject(i8* nest undef, %_type.0* nonnull @string..d), !dbg !103
  %s.sroa.0.0.cast.43.sroa_cast = bitcast { i8*, i64 }* %tmpv.6 to i64*
  store i64 %call.4.fca.0.extract, i64* %s.sroa.0.0.cast.43.sroa_cast, align 8
  %s.sroa.4.0.cast.43.sroa_idx6 = getelementptr inbounds { i8*, i64 }, { i8*, i64 }* %tmpv.6, i64 0, i32 1
  store i64 %call.4.fca.1.extract, i64* %s.sroa.4.0.cast.43.sroa_idx6, align 8
  %cast.46 = bitcast { i8*, i64 }* %tmpv.6 to i8*, !dbg !103
  call void @runtime.typedmemmove(i8* nest undef, %_type.0* nonnull @string..d, i8* %call.5, i8* nonnull %cast.46), !dbg !103
  %tmp.2.sroa.0.0.cast.48.sroa_idx = getelementptr inbounds [1 x { %_type.0*, i8* }], [1 x { %_type.0*, i8* }]* %tmpv.7, i64 0, i64 0, i32 0, !dbg !103
  store %_type.0* @string..d, %_type.0** %tmp.2.sroa.0.0.cast.48.sroa_idx, align 8, !dbg !103
  %tmp.2.sroa.2.0.cast.48.sroa_idx10 = getelementptr inbounds [1 x { %_type.0*, i8* }], [1 x { %_type.0*, i8* }]* %tmpv.7, i64 0, i64 0, i32 1, !dbg !103
  store i8* %call.5, i8** %tmp.2.sroa.2.0.cast.48.sroa_idx10, align 8, !dbg !103
  %field.7 = getelementptr inbounds %IPST.0, %IPST.0* %tmp.3, i64 0, i32 0, !dbg !103
  %cast.51 = getelementptr inbounds [1 x { %_type.0*, i8* }], [1 x { %_type.0*, i8* }]* %tmpv.7, i64 0, i64 0, !dbg !103
  store { %_type.0*, i8* }* %cast.51, { %_type.0*, i8* }** %field.7, align 8, !dbg !103
  %field.8 = getelementptr inbounds %IPST.0, %IPST.0* %tmp.3, i64 0, i32 1, !dbg !103
  store i64 1, i64* %field.8, align 8, !dbg !103
  %field.9 = getelementptr inbounds %IPST.0, %IPST.0* %tmp.3, i64 0, i32 2, !dbg !103
  store i64 1, i64* %field.9, align 8, !dbg !103
  %call.6 = call { i64, i64 } @fmt.Sprintf(i8* nest undef, i64 ptrtoint ([4 x i8]* @const.9 to i64), i64 3, %IPST.0* byval nonnull %tmp.3), !dbg !103
  ret { i64, i64 } %call.6, !dbg !104
}

define void @command_line_arguments.Script({ i8*, i64, i64 }* nocapture sret %sret.formal.0, i8* nest nocapture readnone %nest.3, %IPST.1* byval nocapture readonly %commands) #0 !dbg !105 {
entry:
  call void @llvm.dbg.declare(metadata %IPST.1* %commands, metadata !114, metadata !DIExpression()), !dbg !115
  %tmpv.16 = alloca { i8*, i64, i64 }, align 8
  %tmpv.18 = alloca { i8*, i64, i64 }, align 8
  %sret.actual.5 = alloca { i8**, i64, i64 }, align 8
  %sret.actual.6 = alloca { i8**, i64, i64 }, align 8
  %tmpv.25 = alloca { i8*, i64, i64 }, align 8
  %call.7 = call i8* @runtime.newobject(i8* nest undef, %_type.0* getelementptr inbounds (%ArrayType.0, %ArrayType.0* @type...612x.7uint8, i64 0, i32 0)), !dbg !116
  call void @llvm.memcpy.p0i8.p0i8.i64(i8* align 1 %call.7, i8* align 1 getelementptr inbounds ([12 x i8], [12 x i8]* @const.15, i64 0, i64 0), i64 12, i1 false), !dbg !116
  call void @llvm.dbg.value(metadata i8* %call.7, metadata !118, metadata !DIExpression(DW_OP_LLVM_fragment, 0, 64)), !dbg !119
  call void @llvm.dbg.value(metadata i64 12, metadata !118, metadata !DIExpression(DW_OP_LLVM_fragment, 64, 64)), !dbg !119
  call void @llvm.dbg.value(metadata i64 12, metadata !118, metadata !DIExpression(DW_OP_LLVM_fragment, 128, 64)), !dbg !119
  %tmpv.12.sroa.0.0.cast.75.sroa_idx = getelementptr inbounds %IPST.1, %IPST.1* %commands, i64 0, i32 0
  %tmpv.12.sroa.0.0.copyload = load { i8*, i64 }*, { i8*, i64 }** %tmpv.12.sroa.0.0.cast.75.sroa_idx, align 8
  %tmpv.12.sroa.2.0.cast.75.sroa_idx18 = getelementptr inbounds %IPST.1, %IPST.1* %commands, i64 0, i32 1
  %tmpv.12.sroa.2.0.copyload = load i64, i64* %tmpv.12.sroa.2.0.cast.75.sroa_idx18, align 8
  call void @llvm.dbg.value(metadata i64 12, metadata !118, metadata !DIExpression(DW_OP_LLVM_fragment, 128, 64)), !dbg !119
  call void @llvm.dbg.value(metadata i64 12, metadata !118, metadata !DIExpression(DW_OP_LLVM_fragment, 64, 64)), !dbg !119
  call void @llvm.dbg.value(metadata i8* %call.7, metadata !118, metadata !DIExpression(DW_OP_LLVM_fragment, 0, 64)), !dbg !119
  %icmp.1280 = icmp sgt i64 %tmpv.12.sroa.2.0.copyload, 0, !dbg !120
  br i1 %icmp.1280, label %else.0.lr.ph, label %else.6

else.0.lr.ph:                                     ; preds = %entry
  %b.sroa.0.0.cast.82.sroa_idx = getelementptr inbounds { i8*, i64, i64 }, { i8*, i64, i64 }* %tmpv.16, i64 0, i32 0
  %b.sroa.6.0.cast.82.sroa_idx37 = getelementptr inbounds { i8*, i64, i64 }, { i8*, i64, i64 }* %tmpv.16, i64 0, i32 1
  %b.sroa.7.0.cast.82.sroa_idx43 = getelementptr inbounds { i8*, i64, i64 }, { i8*, i64, i64 }* %tmpv.16, i64 0, i32 2
  %cast.87 = bitcast { i8*, i64, i64 }* %tmpv.18 to i8*
  %cast.88 = bitcast { i8**, i64, i64 }* %sret.actual.5 to i8*
  %field.17 = getelementptr inbounds { i8*, i64, i64 }, { i8*, i64, i64 }* %tmpv.18, i64 0, i32 1
  %cast.89 = bitcast { i8*, i64, i64 }* %tmpv.16 to { i8**, i64, i64 }*
  %tmpv.24.sroa.0.0.cast.94.sroa_idx = bitcast { i8**, i64, i64 }* %sret.actual.6 to i8**
  %0 = getelementptr inbounds { i8**, i64, i64 }, { i8**, i64, i64 }* %sret.actual.6, i64 0, i32 1
  %1 = getelementptr inbounds { i8**, i64, i64 }, { i8**, i64, i64 }* %sret.actual.6, i64 0, i32 2
  %tmpv.27.sroa.0.0.cast.101.sroa_idx = getelementptr inbounds { i8*, i64, i64 }, { i8*, i64, i64 }* %tmpv.25, i64 0, i32 0
  %tmpv.27.sroa.2.0.cast.101.sroa_idx70 = getelementptr inbounds { i8*, i64, i64 }, { i8*, i64, i64 }* %tmpv.25, i64 0, i32 1
  %tmpv.27.sroa.3.0.cast.101.sroa_idx71 = getelementptr inbounds { i8*, i64, i64 }, { i8*, i64, i64 }* %tmpv.25, i64 0, i32 2
  %cast.103 = bitcast { i8*, i64, i64 }* %tmpv.25 to { i8**, i64, i64 }*
  %cast.104 = bitcast { i8*, i64, i64 }* %tmpv.18 to { i8**, i64, i64 }*
  br label %else.0

else.0:                                           ; preds = %else.0.lr.ph, %else.4
  %b.sroa.7.084 = phi i64 [ 12, %else.0.lr.ph ], [ %b.sroa.7.0.copyload45, %else.4 ]
  %b.sroa.6.083 = phi i64 [ 12, %else.0.lr.ph ], [ %b.sroa.6.0.copyload39, %else.4 ]
  %b.sroa.0.082 = phi i8* [ %call.7, %else.0.lr.ph ], [ %b.sroa.0.0.copyload34, %else.4 ]
  %tmpv.10.081 = phi i64 [ 0, %else.0.lr.ph ], [ %add.1, %else.4 ]
  call void @llvm.dbg.value(metadata i64 %b.sroa.7.084, metadata !118, metadata !DIExpression(DW_OP_LLVM_fragment, 128, 64)), !dbg !119
  call void @llvm.dbg.value(metadata i64 %b.sroa.6.083, metadata !118, metadata !DIExpression(DW_OP_LLVM_fragment, 64, 64)), !dbg !119
  call void @llvm.dbg.value(metadata i8* %b.sroa.0.082, metadata !118, metadata !DIExpression(DW_OP_LLVM_fragment, 0, 64)), !dbg !119
  %ptroff.0 = getelementptr { i8*, i64 }, { i8*, i64 }* %tmpv.12.sroa.0.0.copyload, i64 %tmpv.10.081, !dbg !120
  %tmpv.11.sroa.0.0.cast.77.sroa_cast = bitcast { i8*, i64 }* %ptroff.0 to i64*, !dbg !120
  %tmpv.11.sroa.0.0.copyload31 = load i64, i64* %tmpv.11.sroa.0.0.cast.77.sroa_cast, align 8, !dbg !120
  %tmpv.11.sroa.3.0.cast.77.sroa_idx32 = getelementptr inbounds { i8*, i64 }, { i8*, i64 }* %tmpv.12.sroa.0.0.copyload, i64 %tmpv.10.081, i32 1, !dbg !120
  %tmpv.11.sroa.3.0.copyload33 = load i64, i64* %tmpv.11.sroa.3.0.cast.77.sroa_idx32, align 8, !dbg !120
  call void @llvm.dbg.value(metadata i64 %tmpv.11.sroa.0.0.copyload31, metadata !122, metadata !DIExpression(DW_OP_LLVM_fragment, 0, 64)), !dbg !123
  call void @llvm.dbg.value(metadata i64 %tmpv.11.sroa.3.0.copyload33, metadata !122, metadata !DIExpression(DW_OP_LLVM_fragment, 64, 64)), !dbg !123
  store i8* %b.sroa.0.082, i8** %b.sroa.0.0.cast.82.sroa_idx, align 8
  store i64 %b.sroa.6.083, i64* %b.sroa.6.0.cast.82.sroa_idx37, align 8
  store i64 %b.sroa.7.084, i64* %b.sroa.7.0.cast.82.sroa_idx43, align 8
  call void @runtime.stringtoslicebyte({ i8**, i64, i64 }* nonnull sret %sret.actual.5, i8* nest undef, i8* null, i64 %tmpv.11.sroa.0.0.copyload31, i64 %tmpv.11.sroa.3.0.copyload33), !dbg !124
  call void @llvm.memcpy.p0i8.p0i8.i64(i8* nonnull align 8 %cast.87, i8* nonnull align 8 %cast.88, i64 24, i1 false)
  %tmpv.18.field.ld.0 = load i64, i64* %field.17, align 8, !dbg !125
  %add.0 = add i64 %tmpv.18.field.ld.0, %b.sroa.6.083, !dbg !125
  %tmpv.16.field.ld.1 = load i64, i64* %b.sroa.7.0.cast.82.sroa_idx43, align 8, !dbg !125
  %icmp.2 = icmp ugt i64 %add.0, %tmpv.16.field.ld.1, !dbg !125
  br i1 %icmp.2, label %then.1, label %else.1

then.1:                                           ; preds = %else.0
  call void @runtime.growslice({ i8**, i64, i64 }* nonnull sret %sret.actual.6, i8* nest undef, %_type.0* nonnull @uint8..d, { i8**, i64, i64 }* byval nonnull %cast.89, i64 %add.0), !dbg !125
  %tmpv.24.sroa.0.0.copyload = load i8*, i8** %tmpv.24.sroa.0.0.cast.94.sroa_idx, align 8
  %tmpv.24.sroa.3.0.copyload = load i64, i64* %0, align 8
  %tmpv.24.sroa.4.0.copyload = load i64, i64* %1, align 8
  br label %fallthrough.1

fallthrough.1:                                    ; preds = %else.2, %then.1
  %tmpv.24.sroa.0.0 = phi i8* [ %tmpv.24.sroa.0.0.copyload, %then.1 ], [ %tmpv.16.field.ld.3, %else.2 ]
  %tmpv.24.sroa.3.0 = phi i64 [ %tmpv.24.sroa.3.0.copyload, %then.1 ], [ %add.0, %else.2 ]
  %tmpv.24.sroa.4.0 = phi i64 [ %tmpv.24.sroa.4.0.copyload, %then.1 ], [ %tmpv.16.field.ld.1, %else.2 ]
  store i8* %tmpv.24.sroa.0.0, i8** %b.sroa.0.0.cast.82.sroa_idx, align 8, !dbg !125
  store i64 %tmpv.24.sroa.3.0, i64* %b.sroa.6.0.cast.82.sroa_idx37, align 8, !dbg !125
  store i64 %tmpv.24.sroa.4.0, i64* %b.sroa.7.0.cast.82.sroa_idx43, align 8, !dbg !125
  %icmp.9 = icmp slt i64 %tmpv.24.sroa.4.0, %b.sroa.6.083, !dbg !125
  %2 = icmp slt i64 %b.sroa.6.083, 0, !dbg !125
  %ior.9 = or i1 %2, %icmp.9, !dbg !125
  br i1 %ior.9, label %then.4, label %else.4

else.1:                                           ; preds = %else.0
  %icmp.4 = icmp sgt i64 %add.0, %tmpv.16.field.ld.1, !dbg !125
  %add.0.lobit73 = or i64 %add.0, %tmpv.16.field.ld.1, !dbg !125
  %3 = icmp slt i64 %add.0.lobit73, 0, !dbg !125
  %4 = or i1 %icmp.4, %3, !dbg !125
  br i1 %4, label %then.2, label %else.2

then.2:                                           ; preds = %else.1
  call void @__go_runtime_error(i8* nest undef, i32 3), !dbg !125
  unreachable

else.2:                                           ; preds = %else.1
  %tmpv.16.field.ld.3 = load i8*, i8** %b.sroa.0.0.cast.82.sroa_idx, align 8, !dbg !125
  br label %fallthrough.1

then.4:                                           ; preds = %fallthrough.1
  call void @__go_runtime_error(i8* nest undef, i32 3), !dbg !125
  unreachable

else.4:                                           ; preds = %fallthrough.1
  %icmp.11 = icmp eq i64 %tmpv.24.sroa.4.0, %b.sroa.6.083, !dbg !125
  %.b.sroa.6.0 = select i1 %icmp.11, i64 0, i64 %b.sroa.6.083
  %ptroff.2 = getelementptr i8, i8* %tmpv.24.sroa.0.0, i64 %.b.sroa.6.0, !dbg !125
  %sub.4 = sub i64 %tmpv.24.sroa.3.0, %b.sroa.6.083, !dbg !125
  %sub.5 = sub i64 %tmpv.24.sroa.4.0, %b.sroa.6.083, !dbg !125
  store i8* %ptroff.2, i8** %tmpv.27.sroa.0.0.cast.101.sroa_idx, align 8
  store i64 %sub.4, i64* %tmpv.27.sroa.2.0.cast.101.sroa_idx70, align 8
  store i64 %sub.5, i64* %tmpv.27.sroa.3.0.cast.101.sroa_idx71, align 8
  %call.8 = call i64 @runtime.slicecopy(i8* nest undef, { i8**, i64, i64 }* byval nonnull %cast.103, { i8**, i64, i64 }* byval nonnull %cast.104, i64 1), !dbg !125
  %b.sroa.0.0.copyload34 = load i8*, i8** %b.sroa.0.0.cast.82.sroa_idx, align 8, !dbg !126
  %b.sroa.6.0.copyload39 = load i64, i64* %b.sroa.6.0.cast.82.sroa_idx37, align 8, !dbg !126
  %b.sroa.7.0.copyload45 = load i64, i64* %b.sroa.7.0.cast.82.sroa_idx43, align 8, !dbg !126
  %add.1 = add nuw nsw i64 %tmpv.10.081, 1, !dbg !120
  call void @llvm.dbg.value(metadata i64 %b.sroa.7.0.copyload45, metadata !118, metadata !DIExpression(DW_OP_LLVM_fragment, 128, 64)), !dbg !119
  call void @llvm.dbg.value(metadata i64 %b.sroa.6.0.copyload39, metadata !118, metadata !DIExpression(DW_OP_LLVM_fragment, 64, 64)), !dbg !119
  call void @llvm.dbg.value(metadata i8* %b.sroa.0.0.copyload34, metadata !118, metadata !DIExpression(DW_OP_LLVM_fragment, 0, 64)), !dbg !119
  %icmp.12 = icmp slt i64 %add.1, %tmpv.12.sroa.2.0.copyload, !dbg !120
  br i1 %icmp.12, label %else.0, label %else.6

else.6:                                           ; preds = %else.4, %entry
  %b.sroa.0.0.lcssa = phi i8* [ %call.7, %entry ], [ %b.sroa.0.0.copyload34, %else.4 ], !dbg !127
  %b.sroa.6.0.lcssa = phi i64 [ 12, %entry ], [ %b.sroa.6.0.copyload39, %else.4 ], !dbg !127
  %b.sroa.7.0.lcssa = phi i64 [ 12, %entry ], [ %b.sroa.7.0.copyload45, %else.4 ], !dbg !127
  call void @llvm.dbg.value(metadata i8* %b.sroa.0.0.lcssa, metadata !118, metadata !DIExpression(DW_OP_LLVM_fragment, 0, 64)), !dbg !119
  call void @llvm.dbg.value(metadata i64 %b.sroa.6.0.lcssa, metadata !118, metadata !DIExpression(DW_OP_LLVM_fragment, 64, 64)), !dbg !119
  call void @llvm.dbg.value(metadata i64 %b.sroa.7.0.lcssa, metadata !118, metadata !DIExpression(DW_OP_LLVM_fragment, 128, 64)), !dbg !119
  call void @llvm.dbg.value(metadata i8* undef, metadata !128, metadata !DIExpression(DW_OP_LLVM_fragment, 0, 64)), !dbg !129
  call void @llvm.dbg.value(metadata i64 undef, metadata !128, metadata !DIExpression(DW_OP_LLVM_fragment, 64, 64)), !dbg !129
  call void @llvm.dbg.value(metadata i64 undef, metadata !128, metadata !DIExpression(DW_OP_LLVM_fragment, 128, 64)), !dbg !129
  %"$ret3.sroa.0.0.cast.109.sroa_idx" = getelementptr inbounds { i8*, i64, i64 }, { i8*, i64, i64 }* %sret.formal.0, i64 0, i32 0, !dbg !130
  store i8* %b.sroa.0.0.lcssa, i8** %"$ret3.sroa.0.0.cast.109.sroa_idx", align 8, !dbg !130
  %"$ret3.sroa.5.0.cast.109.sroa_idx51" = getelementptr inbounds { i8*, i64, i64 }, { i8*, i64, i64 }* %sret.formal.0, i64 0, i32 1, !dbg !130
  store i64 %b.sroa.6.0.lcssa, i64* %"$ret3.sroa.5.0.cast.109.sroa_idx51", align 8, !dbg !130
  %"$ret3.sroa.6.0.cast.109.sroa_idx54" = getelementptr inbounds { i8*, i64, i64 }, { i8*, i64, i64 }* %sret.formal.0, i64 0, i32 2, !dbg !130
  store i64 %b.sroa.7.0.lcssa, i64* %"$ret3.sroa.6.0.cast.109.sroa_idx54", align 8, !dbg !130
  ret void, !dbg !130
}

; Function Attrs: noreturn
declare void @__go_runtime_error(i8*, i32) local_unnamed_addr #3

declare void @runtime.stringtoslicebyte({ i8**, i64, i64 }*, i8*, i8*, i64, i64) local_unnamed_addr #0

declare void @runtime.growslice({ i8**, i64, i64 }*, i8*, %_type.0*, { i8**, i64, i64 }*, i64) local_unnamed_addr #0

declare i64 @runtime.slicecopy(i8*, { i8**, i64, i64 }*, { i8**, i64, i64 }*, i64) local_unnamed_addr #0

; Function Attrs: nounwind readnone speculatable
declare void @llvm.dbg.value(metadata, metadata, metadata) #2

attributes #0 = { "disable-tail-calls"="true" "no-frame-pointer-elim"="false" "split-stack" "target-cpu"="x86-64" "target-features"="+fxsr,+mmx,+sse,+sse2,+x87" }
attributes #1 = { argmemonly nounwind }
attributes #2 = { nounwind readnone speculatable }
attributes #3 = { noreturn "disable-tail-calls"="true" "no-frame-pointer-elim"="false" "split-stack" "target-cpu"="x86-64" "target-features"="+fxsr,+mmx,+sse,+sse2,+x87" }

!llvm.module.flags = !{!0}
!llvm.dbg.cu = !{!1}

!0 = !{i32 7, !"PIC Level", i32 0}
!1 = distinct !DICompileUnit(language: DW_LANG_Go, file: !2, producer: "llvm-goc", isOptimized: true, runtimeVersion: 0, emissionKind: FullDebug, enums: !3)
!2 = !DIFile(filename: "./template.go", directory: "/home/wangcong/go_path/src/github.com/ChrisRx/dungeonfs/pkg/exec/template")
!3 = !{}
!4 = distinct !DISubprogram(name: "template.Escape", linkageName: "command_line_arguments.Escape", scope: null, file: !5, line: 8, type: !6, isLocal: false, isDefinition: true, scopeLine: 8, isOptimized: false, unit: !1, retainedNodes: !3)
!5 = !DIFile(filename: "template.go", directory: ".")
!6 = !DISubroutineType(types: !7)
!7 = !{!8, !8}
!8 = !DICompositeType(tag: DW_TAG_structure_type, name: "string", file: !9, line: 1, size: 128, align: 8, elements: !10)
!9 = !DIFile(filename: "<built-in>", directory: "")
!10 = !{!11, !14}
!11 = !DIDerivedType(tag: DW_TAG_member, name: "__data", file: !9, line: 1, baseType: !12, size: 64, align: 64)
!12 = !DIDerivedType(tag: DW_TAG_pointer_type, baseType: !13, size: 64)
!13 = !DIBasicType(name: "uint8", size: 8, encoding: DW_ATE_unsigned)
!14 = !DIDerivedType(tag: DW_TAG_member, name: "__length", file: !9, line: 1, baseType: !15, size: 64, align: 64, offset: 64)
!15 = !DIBasicType(name: "int", size: 64, encoding: DW_ATE_signed)
!16 = !DILocalVariable(name: "s", arg: 1, scope: !4, file: !5, line: 8, type: !8)
!17 = !DILocation(line: 8, column: 13, scope: !4)
!18 = !DILocation(line: 9, column: 17, scope: !4)
!19 = !DILocation(line: 9, column: 2, scope: !4)
!20 = distinct !DISubprogram(name: "template.Echo", linkageName: "command_line_arguments.Echo", scope: null, file: !5, line: 12, type: !21, isLocal: false, isDefinition: true, scopeLine: 12, isOptimized: false, unit: !1, retainedNodes: !3)
!21 = !DISubroutineType(types: !22)
!22 = !{!8, !8, !23}
!23 = !DICompositeType(tag: DW_TAG_structure_type, name: "struct{*struct{*_type,*void},int,int}", file: !24, size: 192, align: 8, elements: !25)
!24 = !DIFile(filename: "", directory: "")
!25 = !{!26, !80, !81}
!26 = !DIDerivedType(tag: DW_TAG_member, name: "__values", file: !24, line: 1, baseType: !27, size: 64, align: 64)
!27 = !DIDerivedType(tag: DW_TAG_pointer_type, baseType: !28, size: 64)
!28 = !DICompositeType(tag: DW_TAG_structure_type, name: "struct{*_type,*void}", file: !24, size: 128, align: 8, elements: !29)
!29 = !{!30, !83}
!30 = !DIDerivedType(tag: DW_TAG_member, name: "__type_descriptor", file: !24, line: 1, baseType: !31, size: 64, align: 64)
!31 = !DIDerivedType(tag: DW_TAG_pointer_type, baseType: !32, size: 64)
!32 = !DICompositeType(tag: DW_TAG_structure_type, name: "_type", file: !9, line: 1, size: 576, align: 8, elements: !33)
!33 = !{!34, !36, !37, !39, !40, !41, !42, !52, !61, !62, !64, !82}
!34 = !DIDerivedType(tag: DW_TAG_member, name: "size", file: !9, line: 1, baseType: !35, size: 64, align: 64)
!35 = !DIBasicType(name: "uintptr", size: 64, encoding: DW_ATE_unsigned)
!36 = !DIDerivedType(tag: DW_TAG_member, name: "ptrdata", file: !9, line: 1, baseType: !35, size: 64, align: 64, offset: 64)
!37 = !DIDerivedType(tag: DW_TAG_member, name: "hash", file: !9, line: 1, baseType: !38, size: 32, align: 32, offset: 128)
!38 = !DIBasicType(name: "uint32", size: 32, encoding: DW_ATE_unsigned)
!39 = !DIDerivedType(tag: DW_TAG_member, name: "kind", file: !9, line: 1, baseType: !13, size: 8, align: 8, offset: 160)
!40 = !DIDerivedType(tag: DW_TAG_member, name: "align", file: !9, line: 1, baseType: !13, size: 8, align: 8, offset: 168)
!41 = !DIDerivedType(tag: DW_TAG_member, name: "fieldAlign", file: !9, line: 1, baseType: !13, size: 8, align: 8, offset: 176)
!42 = !DIDerivedType(tag: DW_TAG_member, name: "hashfn", file: !9, line: 1, baseType: !43, size: 64, align: 64, offset: 192)
!43 = !DIDerivedType(tag: DW_TAG_pointer_type, baseType: !44, size: 64)
!44 = !DICompositeType(tag: DW_TAG_structure_type, name: "__go_descriptor", file: !9, line: 1, size: 64, align: 8, elements: !45)
!45 = !{!46}
!46 = !DIDerivedType(tag: DW_TAG_member, name: "code", file: !9, line: 1, baseType: !47, size: 64, align: 64)
!47 = !DIDerivedType(tag: DW_TAG_pointer_type, baseType: !48, size: 64)
!48 = !DISubroutineType(types: !49)
!49 = !{!35, !50, !35}
!50 = !DIDerivedType(tag: DW_TAG_pointer_type, baseType: !51, size: 64)
!51 = !DIBasicType(name: "void")
!52 = !DIDerivedType(tag: DW_TAG_member, name: "equalfn", file: !9, line: 1, baseType: !53, size: 64, align: 64, offset: 256)
!53 = !DIDerivedType(tag: DW_TAG_pointer_type, baseType: !54, size: 64)
!54 = !DICompositeType(tag: DW_TAG_structure_type, name: "__go_descriptor", file: !9, line: 1, size: 64, align: 8, elements: !55)
!55 = !{!56}
!56 = !DIDerivedType(tag: DW_TAG_member, name: "code", file: !9, line: 1, baseType: !57, size: 64, align: 64)
!57 = !DIDerivedType(tag: DW_TAG_pointer_type, baseType: !58, size: 64)
!58 = !DISubroutineType(types: !59)
!59 = !{!60, !50, !50}
!60 = !DIBasicType(name: "bool", size: 8, encoding: DW_ATE_unsigned)
!61 = !DIDerivedType(tag: DW_TAG_member, name: "gcdata", file: !9, line: 1, baseType: !12, size: 64, align: 64, offset: 320)
!62 = !DIDerivedType(tag: DW_TAG_member, name: "string", file: !9, line: 1, baseType: !63, size: 64, align: 64, offset: 384)
!63 = !DIDerivedType(tag: DW_TAG_pointer_type, baseType: !8, size: 64)
!64 = !DIDerivedType(tag: DW_TAG_member, name: "uncommonType", file: !9, line: 1, baseType: !65, size: 64, align: 64, offset: 448)
!65 = !DIDerivedType(tag: DW_TAG_pointer_type, baseType: !66, size: 64)
!66 = !DICompositeType(tag: DW_TAG_structure_type, name: "uncommonType", file: !9, line: 1, size: 320, align: 8, elements: !67)
!67 = !{!68, !69, !70}
!68 = !DIDerivedType(tag: DW_TAG_member, name: "name", file: !9, line: 1, baseType: !63, size: 64, align: 64)
!69 = !DIDerivedType(tag: DW_TAG_member, name: "pkgPath", file: !9, line: 1, baseType: !63, size: 64, align: 64, offset: 64)
!70 = !DIDerivedType(tag: DW_TAG_member, name: "methods", file: !9, line: 1, baseType: !71, size: 192, align: 64, offset: 128)
!71 = !DICompositeType(tag: DW_TAG_structure_type, name: "struct{*method,int,int}", file: !24, size: 192, align: 8, elements: !72)
!72 = !{!73, !80, !81}
!73 = !DIDerivedType(tag: DW_TAG_member, name: "__values", file: !24, line: 1, baseType: !74, size: 64, align: 64)
!74 = !DIDerivedType(tag: DW_TAG_pointer_type, baseType: !75, size: 64)
!75 = !DICompositeType(tag: DW_TAG_structure_type, name: "method", file: !9, line: 1, size: 320, align: 8, elements: !76)
!76 = !{!68, !69, !77, !78, !79}
!77 = !DIDerivedType(tag: DW_TAG_member, name: "mtyp", file: !9, line: 1, baseType: !50, size: 64, align: 64, offset: 128)
!78 = !DIDerivedType(tag: DW_TAG_member, name: "typ", file: !9, line: 1, baseType: !50, size: 64, align: 64, offset: 192)
!79 = !DIDerivedType(tag: DW_TAG_member, name: "tfn", file: !9, line: 1, baseType: !50, size: 64, align: 64, offset: 256)
!80 = !DIDerivedType(tag: DW_TAG_member, name: "__count", file: !24, line: 1, baseType: !15, size: 64, align: 64, offset: 64)
!81 = !DIDerivedType(tag: DW_TAG_member, name: "__capacity", file: !24, line: 1, baseType: !15, size: 64, align: 64, offset: 128)
!82 = !DIDerivedType(tag: DW_TAG_member, name: "ptrToThis", file: !9, line: 1, baseType: !50, size: 64, align: 64, offset: 512)
!83 = !DIDerivedType(tag: DW_TAG_member, name: "__object", file: !24, line: 1, baseType: !50, size: 64, align: 64, offset: 64)
!84 = !DILocalVariable(name: "a", arg: 2, scope: !20, file: !5, line: 12, type: !23)
!85 = !DILocation(line: 12, column: 26, scope: !20)
!86 = !DILocalVariable(name: "format", arg: 1, scope: !20, file: !5, line: 12, type: !8)
!87 = !DILocation(line: 12, column: 11, scope: !20)
!88 = !DILocation(line: 13, column: 11, scope: !89)
!89 = distinct !DILexicalBlock(scope: !20, file: !5, line: 12, column: 1)
!90 = !DILocalVariable(name: "s", scope: !89, file: !5, line: 13, type: !8)
!91 = !DILocation(line: 13, column: 2, scope: !20)
!92 = !DILocation(line: 14, column: 13, scope: !89)
!93 = !DILocation(line: 14, column: 2, scope: !89)
!94 = distinct !DISubprogram(name: "template.Command", linkageName: "command_line_arguments.Command", scope: null, file: !5, line: 17, type: !21, isLocal: false, isDefinition: true, scopeLine: 17, isOptimized: false, unit: !1, retainedNodes: !3)
!95 = !DILocalVariable(name: "a", arg: 2, scope: !94, file: !5, line: 17, type: !23)
!96 = !DILocation(line: 17, column: 29, scope: !94)
!97 = !DILocalVariable(name: "format", arg: 1, scope: !94, file: !5, line: 17, type: !8)
!98 = !DILocation(line: 17, column: 14, scope: !94)
!99 = !DILocation(line: 18, column: 11, scope: !100)
!100 = distinct !DILexicalBlock(scope: !94, file: !5, line: 17, column: 1)
!101 = !DILocalVariable(name: "s", scope: !100, file: !5, line: 18, type: !8)
!102 = !DILocation(line: 18, column: 2, scope: !94)
!103 = !DILocation(line: 19, column: 13, scope: !100)
!104 = !DILocation(line: 19, column: 2, scope: !100)
!105 = distinct !DISubprogram(name: "template.Script", linkageName: "command_line_arguments.Script", scope: null, file: !5, line: 22, type: !106, isLocal: false, isDefinition: true, scopeLine: 22, isOptimized: false, unit: !1, retainedNodes: !3)
!106 = !DISubroutineType(types: !107)
!107 = !{!108, !111}
!108 = !DICompositeType(tag: DW_TAG_structure_type, name: "struct{*uint8,int,int}", file: !24, size: 192, align: 8, elements: !109)
!109 = !{!110, !80, !81}
!110 = !DIDerivedType(tag: DW_TAG_member, name: "__values", file: !24, line: 1, baseType: !12, size: 64, align: 64)
!111 = !DICompositeType(tag: DW_TAG_structure_type, name: "struct{*string,int,int}", file: !24, size: 192, align: 8, elements: !112)
!112 = !{!113, !80, !81}
!113 = !DIDerivedType(tag: DW_TAG_member, name: "__values", file: !24, line: 1, baseType: !63, size: 64, align: 64)
!114 = !DILocalVariable(name: "commands", arg: 1, scope: !105, file: !5, line: 22, type: !111)
!115 = !DILocation(line: 22, column: 13, scope: !105)
!116 = !DILocation(line: 23, column: 13, scope: !117)
!117 = distinct !DILexicalBlock(scope: !105, file: !5, line: 22, column: 1)
!118 = !DILocalVariable(name: "b", scope: !117, file: !5, line: 23, type: !108)
!119 = !DILocation(line: 23, column: 2, scope: !105)
!120 = !DILocation(line: 24, column: 2, scope: !121)
!121 = distinct !DILexicalBlock(scope: !117, file: !5, line: 24, column: 2)
!122 = !DILocalVariable(name: "c", scope: !121, file: !5, line: 24, type: !8)
!123 = !DILocation(line: 24, column: 6, scope: !117)
!124 = !DILocation(line: 25, column: 23, scope: !121)
!125 = !DILocation(line: 25, column: 7, scope: !121)
!126 = !DILocation(line: 25, column: 5, scope: !121)
!127 = !DILocation(line: 0, scope: !121)
!128 = !DILocalVariable(name: "$ret3", scope: !105, file: !5, line: 22, type: !108)
!129 = !DILocation(line: 22, column: 33, scope: !105)
!130 = !DILocation(line: 27, column: 2, scope: !117)
	.text
	.file	"gomodule"

	.section ".go_export","e",@progbits
	.ascii "v2;\n"
	.ascii "package "
	.ascii "template"
	.ascii ";\n"
	.ascii "pkgpath "
	.ascii "command-line-arguments"
	.ascii ";\n"
	.ascii "import "
	.ascii "fmt"
	.ascii " "
	.ascii "fmt"
	.ascii " \""
	.ascii "fmt"
	.ascii "\";\n"
	.ascii "import "
	.ascii "strings"
	.ascii " "
	.ascii "strings"
	.ascii " \""
	.ascii "strings"
	.ascii "\";\n"
	.ascii "init"
	.ascii " "
	.ascii "fmt"
	.ascii " "
	.ascii "fmt..import"
	.ascii " "
	.ascii "poll"
	.ascii " "
	.ascii "internal_poll..import"
	.ascii " "
	.ascii "testlog"
	.ascii " "
	.ascii "internal_testlog..import"
	.ascii " "
	.ascii "io"
	.ascii " "
	.ascii "io..import"
	.ascii " "
	.ascii "os"
	.ascii " "
	.ascii "os..import"
	.ascii " "
	.ascii "reflect"
	.ascii " "
	.ascii "reflect..import"
	.ascii " "
	.ascii "runtime"
	.ascii " "
	.ascii "runtime..import"
	.ascii " "
	.ascii "sys"
	.ascii " "
	.ascii "runtime_internal_sys..import"
	.ascii " "
	.ascii "strconv"
	.ascii " "
	.ascii "strconv..import"
	.ascii " "
	.ascii "sync"
	.ascii " "
	.ascii "sync..import"
	.ascii " "
	.ascii "syscall"
	.ascii " "
	.ascii "syscall..import"
	.ascii " "
	.ascii "time"
	.ascii " "
	.ascii "time..import"
	.ascii " "
	.ascii "unicode"
	.ascii " "
	.ascii "unicode..import"
	.ascii ";\n"
	.ascii "init_graph"
	.ascii " "
	.ascii "0"
	.ascii " "
	.ascii "1"
	.ascii " "
	.ascii "0"
	.ascii " "
	.ascii "2"
	.ascii " "
	.ascii "0"
	.ascii " "
	.ascii "3"
	.ascii " "
	.ascii "0"
	.ascii " "
	.ascii "4"
	.ascii " "
	.ascii "0"
	.ascii " "
	.ascii "5"
	.ascii " "
	.ascii "0"
	.ascii " "
	.ascii "6"
	.ascii " "
	.ascii "0"
	.ascii " "
	.ascii "7"
	.ascii " "
	.ascii "0"
	.ascii " "
	.ascii "8"
	.ascii " "
	.ascii "0"
	.ascii " "
	.ascii "9"
	.ascii " "
	.ascii "0"
	.ascii " "
	.ascii "10"
	.ascii " "
	.ascii "0"
	.ascii " "
	.ascii "11"
	.ascii " "
	.ascii "0"
	.ascii " "
	.ascii "12"
	.ascii " "
	.ascii "1"
	.ascii " "
	.ascii "3"
	.ascii " "
	.ascii "1"
	.ascii " "
	.ascii "6"
	.ascii " "
	.ascii "1"
	.ascii " "
	.ascii "7"
	.ascii " "
	.ascii "1"
	.ascii " "
	.ascii "9"
	.ascii " "
	.ascii "1"
	.ascii " "
	.ascii "10"
	.ascii " "
	.ascii "1"
	.ascii " "
	.ascii "11"
	.ascii " "
	.ascii "3"
	.ascii " "
	.ascii "6"
	.ascii " "
	.ascii "3"
	.ascii " "
	.ascii "7"
	.ascii " "
	.ascii "3"
	.ascii " "
	.ascii "9"
	.ascii " "
	.ascii "4"
	.ascii " "
	.ascii "1"
	.ascii " "
	.ascii "4"
	.ascii " "
	.ascii "2"
	.ascii " "
	.ascii "4"
	.ascii " "
	.ascii "3"
	.ascii " "
	.ascii "4"
	.ascii " "
	.ascii "6"
	.ascii " "
	.ascii "4"
	.ascii " "
	.ascii "7"
	.ascii " "
	.ascii "4"
	.ascii " "
	.ascii "9"
	.ascii " "
	.ascii "4"
	.ascii " "
	.ascii "10"
	.ascii " "
	.ascii "4"
	.ascii " "
	.ascii "11"
	.ascii " "
	.ascii "5"
	.ascii " "
	.ascii "6"
	.ascii " "
	.ascii "5"
	.ascii " "
	.ascii "7"
	.ascii " "
	.ascii "5"
	.ascii " "
	.ascii "8"
	.ascii " "
	.ascii "5"
	.ascii " "
	.ascii "9"
	.ascii " "
	.ascii "5"
	.ascii " "
	.ascii "12"
	.ascii " "
	.ascii "6"
	.ascii " "
	.ascii "7"
	.ascii " "
	.ascii "8"
	.ascii " "
	.ascii "6"
	.ascii " "
	.ascii "8"
	.ascii " "
	.ascii "7"
	.ascii " "
	.ascii "9"
	.ascii " "
	.ascii "6"
	.ascii " "
	.ascii "9"
	.ascii " "
	.ascii "7"
	.ascii " "
	.ascii "10"
	.ascii " "
	.ascii "6"
	.ascii " "
	.ascii "10"
	.ascii " "
	.ascii "7"
	.ascii " "
	.ascii "10"
	.ascii " "
	.ascii "9"
	.ascii " "
	.ascii "11"
	.ascii " "
	.ascii "6"
	.ascii " "
	.ascii "11"
	.ascii " "
	.ascii "7"
	.ascii " "
	.ascii "11"
	.ascii " "
	.ascii "9"
	.ascii " "
	.ascii "11"
	.ascii " "
	.ascii "10"
	.ascii ";\n"
	.ascii "func "
	.ascii "Command"
	.ascii " ("
	.ascii "format"
	.ascii " "
	.ascii "<esc:0x1>"
	.ascii " "
	.ascii "<type -16>"
	.ascii ", "
	.ascii "a"
	.ascii " "
	.ascii "<esc:0x9>"
	.ascii " "
	.ascii "..."
	.ascii "<type 1 "
	.ascii "interface { "
	.ascii "}"
	.ascii ">"
	.ascii ")"
	.ascii " "
	.ascii "<type -16>"
	.ascii ";\n"
	.ascii "func "
	.ascii "Echo"
	.ascii " ("
	.ascii "format"
	.ascii " "
	.ascii "<esc:0x1>"
	.ascii " "
	.ascii "<type -16>"
	.ascii ", "
	.ascii "a"
	.ascii " "
	.ascii "<esc:0x9>"
	.ascii " "
	.ascii "..."
	.ascii "<type 2 "
	.ascii "interface { "
	.ascii "}"
	.ascii ">"
	.ascii ")"
	.ascii " "
	.ascii "<type -16>"
	.ascii ";\n"
	.ascii "func "
	.ascii "Escape"
	.ascii " ("
	.ascii "s"
	.ascii " "
	.ascii "<type -16>"
	.ascii ")"
	.ascii " "
	.ascii "<type -16>"
	.ascii ";\n"
	.ascii "func "
	.ascii "Script"
	.ascii " ("
	.ascii "commands"
	.ascii " "
	.ascii "<esc:0x1>"
	.ascii " "
	.ascii "..."
	.ascii "<type -16>"
	.ascii ")"
	.ascii " "
	.ascii "<type 3 "
	.ascii "["
	.ascii "] "
	.ascii "<type -20>"
	.ascii ">"
	.ascii ";\n"
	.ascii "checksum 142E5EA54727744AE67C3F96A47728247AA1720F;\n"
	.text


	.section	.text.command_line_arguments.Escape,"ax",@progbits
	.globl	command_line_arguments.Escape
	.p2align	4, 0x90
	.type	command_line_arguments.Escape,@function
command_line_arguments.Escape:
.Lfunc_begin0:
	.file	1 "./template.go"
	.loc	1 8 0
	.cfi_startproc
	cmpq	%fs:112, %rsp
	ja	.LBB0_2
	movq	%r10, %rax
	movabsq	$8, %r10
	movabsq	$0, %r11
	callq	__morestack
	retq
	movq	%rax, %r10
.LBB0_2:
	pushq	%rax
	.cfi_def_cfa_offset 16
.Ltmp0:
	.loc	1 9 17 prologue_end
	movq	$-1, (%rsp)
	movl	$.Lconst.0, %edx
	movl	$1, %ecx
	movl	$.Lconst.1, %r8d
	movl	$4, %r9d
.Ltmp1:
	callq	strings.Replace
.Ltmp2:
	.loc	1 9 2 is_stmt 0
	popq	%rcx
	.cfi_def_cfa_offset 8
	retq
.Ltmp3:
.Lfunc_end0:
	.size	command_line_arguments.Escape, .Lfunc_end0-command_line_arguments.Escape
	.cfi_endproc

	.section	.text.command_line_arguments.Echo,"ax",@progbits
	.globl	command_line_arguments.Echo
	.p2align	4, 0x90
	.type	command_line_arguments.Echo,@function
command_line_arguments.Echo:
.Lfunc_begin1:
	.loc	1 12 0 is_stmt 1
	.cfi_startproc
	cmpq	%fs:112, %rsp
	ja	.LBB1_2
	movq	%r10, %rax
	movabsq	$104, %r10
	movabsq	$24, %r11
	callq	__morestack
	retq
	movq	%rax, %r10
.LBB1_2:
.Ltmp4:
	pushq	%r15
	.cfi_def_cfa_offset 16
	pushq	%r14
	.cfi_def_cfa_offset 24
	pushq	%rbx
	.cfi_def_cfa_offset 32
	subq	$80, %rsp
	.cfi_def_cfa_offset 112
	.cfi_offset %rbx, -32
	.cfi_offset %r14, -24
	.cfi_offset %r15, -16
	.loc	1 13 11 prologue_end
	movq	128(%rsp), %rax
	movq	%rax, 16(%rsp)
	movaps	112(%rsp), %xmm0
	movups	%xmm0, (%rsp)
.Ltmp5:
	callq	fmt.Sprintf
.Ltmp6:
	movq	%rax, %r15
.Ltmp7:
	movq	%rdx, %r14
.Ltmp8:
	.loc	1 14 13
	movl	$string..d, %edi
	callq	runtime.newobject
	movq	%rax, %rbx
	movq	%r15, 64(%rsp)
	movq	%r14, 72(%rsp)
	leaq	64(%rsp), %rdx
	movl	$string..d, %edi
	movq	%rax, %rsi
	callq	runtime.typedmemmove
	movq	$string..d, 48(%rsp)
	movq	%rbx, 56(%rsp)
	leaq	48(%rsp), %rax
	movq	%rax, 24(%rsp)
	movq	$1, 32(%rsp)
	movq	$1, 40(%rsp)
	movq	40(%rsp), %rax
	movq	%rax, 16(%rsp)
	movups	24(%rsp), %xmm0
	movups	%xmm0, (%rsp)
	movl	$.Lconst.7, %edi
	movl	$10, %esi
	callq	fmt.Sprintf
	.loc	1 14 2 is_stmt 0
	addq	$80, %rsp
	.cfi_def_cfa_offset 32
	popq	%rbx
	.cfi_def_cfa_offset 24
	popq	%r14
.Ltmp9:
	.cfi_def_cfa_offset 16
	popq	%r15
	.cfi_def_cfa_offset 8
	retq
.Ltmp10:
.Lfunc_end1:
	.size	command_line_arguments.Echo, .Lfunc_end1-command_line_arguments.Echo
	.cfi_endproc

	.section	.text.command_line_arguments.Command,"ax",@progbits
	.globl	command_line_arguments.Command
	.p2align	4, 0x90
	.type	command_line_arguments.Command,@function
command_line_arguments.Command:
.Lfunc_begin2:
	.loc	1 17 0 is_stmt 1
	.cfi_startproc
	cmpq	%fs:112, %rsp
	ja	.LBB2_2
	movq	%r10, %rax
	movabsq	$104, %r10
	movabsq	$24, %r11
	callq	__morestack
	retq
	movq	%rax, %r10
.LBB2_2:
.Ltmp11:
	pushq	%r15
	.cfi_def_cfa_offset 16
	pushq	%r14
	.cfi_def_cfa_offset 24
	pushq	%rbx
	.cfi_def_cfa_offset 32
	subq	$80, %rsp
	.cfi_def_cfa_offset 112
	.cfi_offset %rbx, -32
	.cfi_offset %r14, -24
	.cfi_offset %r15, -16
	.loc	1 18 11 prologue_end
	movq	128(%rsp), %rax
	movq	%rax, 16(%rsp)
	movaps	112(%rsp), %xmm0
	movups	%xmm0, (%rsp)
.Ltmp12:
	callq	fmt.Sprintf
.Ltmp13:
	movq	%rax, %r15
.Ltmp14:
	movq	%rdx, %r14
.Ltmp15:
	.loc	1 19 13
	movl	$string..d, %edi
	callq	runtime.newobject
	movq	%rax, %rbx
	movq	%r15, 64(%rsp)
	movq	%r14, 72(%rsp)
	leaq	64(%rsp), %rdx
	movl	$string..d, %edi
	movq	%rax, %rsi
	callq	runtime.typedmemmove
	movq	$string..d, 48(%rsp)
	movq	%rbx, 56(%rsp)
	leaq	48(%rsp), %rax
	movq	%rax, 24(%rsp)
	movq	$1, 32(%rsp)
	movq	$1, 40(%rsp)
	movq	40(%rsp), %rax
	movq	%rax, 16(%rsp)
	movups	24(%rsp), %xmm0
	movups	%xmm0, (%rsp)
	movl	$.Lconst.9, %edi
	movl	$3, %esi
	callq	fmt.Sprintf
	.loc	1 19 2 is_stmt 0
	addq	$80, %rsp
	.cfi_def_cfa_offset 32
	popq	%rbx
	.cfi_def_cfa_offset 24
	popq	%r14
.Ltmp16:
	.cfi_def_cfa_offset 16
	popq	%r15
	.cfi_def_cfa_offset 8
	retq
.Ltmp17:
.Lfunc_end2:
	.size	command_line_arguments.Command, .Lfunc_end2-command_line_arguments.Command
	.cfi_endproc

	.section	.text.command_line_arguments.Script,"ax",@progbits
	.globl	command_line_arguments.Script
	.p2align	4, 0x90
	.type	command_line_arguments.Script,@function
command_line_arguments.Script:
.Lfunc_begin3:
	.loc	1 22 0 is_stmt 1
	.cfi_startproc
	cmpq	%fs:112, %rsp
	ja	.LBB3_2
	movq	%r10, %rax
	movabsq	$232, %r10
	movabsq	$24, %r11
	callq	__morestack
	retq
	movq	%rax, %r10
.LBB3_2:
	pushq	%rbp
	.cfi_def_cfa_offset 16
	pushq	%r15
	.cfi_def_cfa_offset 24
	pushq	%r14
	.cfi_def_cfa_offset 32
	pushq	%r13
	.cfi_def_cfa_offset 40
	pushq	%r12
	.cfi_def_cfa_offset 48
	pushq	%rbx
	.cfi_def_cfa_offset 56
	subq	$184, %rsp
	.cfi_def_cfa_offset 240
	.cfi_offset %rbx, -56
	.cfi_offset %r12, -48
	.cfi_offset %r13, -40
	.cfi_offset %r14, -32
	.cfi_offset %r15, -24
	.cfi_offset %rbp, -16
	movq	%rdi, 72(%rsp)
.Ltmp18:
	.loc	1 23 13 prologue_end
	movl	$type...612x.7uint8, %edi
	callq	runtime.newobject
.Ltmp19:
	.loc	1 0 13 is_stmt 0
	movabsq	$7074994938520215843, %rcx
	.loc	1 23 13
	movq	%rcx, (%rax)
	movl	$174617441, 8(%rax)
.Ltmp20:
	.loc	1 0 13
	movq	248(%rsp), %r13
.Ltmp21:
	.loc	1 24 2 is_stmt 1
	testq	%r13, %r13
	jle	.LBB3_3
	.loc	1 0 2 is_stmt 0
	movq	240(%rsp), %rbx
	addq	$8, %rbx
	xorl	%ebp, %ebp
	movl	$12, %esi
	leaq	160(%rsp), %r12
	movl	$12, %r15d
	xorl	%r14d, %r14d
	.p2align	4, 0x90
.LBB3_5:
.Ltmp22:
	.loc	1 24 2
	movq	-8(%rbx), %rdx
.Ltmp23:
	movq	(%rbx), %rcx
.Ltmp24:
	.loc	1 0 2
	movq	%rax, 48(%rsp)
	movq	%r15, 56(%rsp)
	movq	%rsi, 64(%rsp)
	.loc	1 25 23 is_stmt 1
	xorl	%esi, %esi
.Ltmp25:
	movq	%r12, %rdi
	callq	runtime.stringtoslicebyte
.Ltmp26:
	.loc	1 0 23 is_stmt 0
	movups	160(%rsp), %xmm0
	movaps	%xmm0, 80(%rsp)
	movq	176(%rsp), %rax
	movq	%rax, 96(%rsp)
	movq	88(%rsp), %rdx
	.loc	1 25 7
	addq	%r15, %rdx
	movq	64(%rsp), %rax
	cmpq	%rax, %rdx
	jbe	.LBB3_11
	movq	64(%rsp), %rax
	movq	%rax, 16(%rsp)
	movups	48(%rsp), %xmm0
	movups	%xmm0, (%rsp)
	movl	$uint8..d, %esi
	leaq	136(%rsp), %rdi
	callq	runtime.growslice
	movq	136(%rsp), %rcx
	movq	144(%rsp), %rdx
	movq	152(%rsp), %rax
	jmp	.LBB3_7
	.p2align	4, 0x90
.LBB3_11:
	cmpq	%rax, %rdx
	jg	.LBB3_14
	.loc	1 0 7
	movq	%rdx, %rcx
	orq	%rax, %rcx
	js	.LBB3_14
	.loc	1 25 7
	movq	48(%rsp), %rcx
.LBB3_7:
	movq	%rcx, 48(%rsp)
	movq	%rdx, 56(%rsp)
	movq	%rax, 64(%rsp)
	testq	%r15, %r15
	js	.LBB3_14
	.loc	1 0 7
	subq	%r15, %rax
	jl	.LBB3_14
	movq	%r15, %rsi
	cmoveq	%rbp, %rsi
	.loc	1 25 7
	addq	%rsi, %rcx
	subq	%r15, %rdx
	movq	%rcx, 112(%rsp)
	movq	%rdx, 120(%rsp)
	movq	%rax, 128(%rsp)
	movq	96(%rsp), %rax
	movq	%rax, 40(%rsp)
	movaps	80(%rsp), %xmm0
	movups	%xmm0, 24(%rsp)
	movq	128(%rsp), %rax
	movq	%rax, 16(%rsp)
	movups	112(%rsp), %xmm0
	movups	%xmm0, (%rsp)
	movl	$1, %edi
	callq	runtime.slicecopy
	.loc	1 25 5
	movq	48(%rsp), %rax
.Ltmp27:
	movq	56(%rsp), %r15
.Ltmp28:
	movq	64(%rsp), %rsi
.Ltmp29:
	.loc	1 24 2 is_stmt 1
	addq	$1, %r14
	addq	$16, %rbx
	cmpq	%r13, %r14
	jl	.LBB3_5
	jmp	.LBB3_10
.Ltmp30:
.LBB3_3:
	.loc	1 0 2 is_stmt 0
	movl	$12, %r15d
	movl	$12, %esi
.Ltmp31:
.LBB3_10:
	movq	72(%rsp), %rcx
	.loc	1 27 2 is_stmt 1
	movq	%rax, (%rcx)
	movq	%r15, 8(%rcx)
	movq	%rsi, 16(%rcx)
	movq	%rcx, %rax
	addq	$184, %rsp
	.cfi_def_cfa_offset 56
	popq	%rbx
	.cfi_def_cfa_offset 48
	popq	%r12
	.cfi_def_cfa_offset 40
	popq	%r13
	.cfi_def_cfa_offset 32
	popq	%r14
	.cfi_def_cfa_offset 24
	popq	%r15
	.cfi_def_cfa_offset 16
	popq	%rbp
	.cfi_def_cfa_offset 8
	retq
.Ltmp32:
.LBB3_14:
	.cfi_def_cfa_offset 240
	.loc	1 25 7
	movl	$3, %edi
	callq	__go_runtime_error
.Ltmp33:
.Lfunc_end3:
	.size	command_line_arguments.Script, .Lfunc_end3-command_line_arguments.Script
	.cfi_endproc

	.type	.Lconst.0,@object
	.section	.rodata..Lconst.0,"a",@progbits
.Lconst.0:
	.asciz	"'"
	.size	.Lconst.0, 2

	.type	.Lconst.1,@object
	.section	.rodata..Lconst.1,"a",@progbits
.Lconst.1:
	.asciz	"'\\''"
	.size	.Lconst.1, 5

	.type	command_line_arguments.Escape..f,@object
	.section	.rodata.command_line_arguments.Escape..f,"a",@progbits
	.globl	command_line_arguments.Escape..f
	.p2align	3
command_line_arguments.Escape..f:
	.quad	command_line_arguments.Escape
	.size	command_line_arguments.Escape..f, 8

	.type	string..d,@object
	.section	.rodata.string..d,"aG",@progbits,string..d,comdat
	.weak	string..d
	.p2align	4
string..d:
	.quad	16
	.quad	8
	.long	2296014490
	.byte	24
	.byte	8
	.byte	8
	.zero	1
	.quad	runtime.strhash..f
	.quad	runtime.strequal..f
	.quad	gcbits..ba
	.quad	go..C1
	.quad	go..C4
	.quad	type...1string
	.size	string..d, 72

	.type	gcbits..ba,@object
	.section	.rodata.gcbits..ba,"aG",@progbits,gcbits..ba,comdat
	.weak	gcbits..ba
gcbits..ba:
	.byte	1
	.size	gcbits..ba, 1

	.type	.Lconst.5,@object
	.section	.rodata..Lconst.5,"a",@progbits
.Lconst.5:
	.asciz	"string"
	.size	.Lconst.5, 7

	.type	go..C1,@object
	.section	.rodata.go..C1,"a",@progbits
	.p2align	3
go..C1:
	.quad	.Lconst.5
	.quad	6
	.size	go..C1, 16

	.type	go..C2,@object
	.section	.rodata.go..C2,"a",@progbits
	.p2align	3
go..C2:
	.quad	.Lconst.5
	.quad	6
	.size	go..C2, 16

	.type	go..C3,@object
	.section	.bss.go..C3,"aw",@nobits
	.p2align	4
go..C3:
	.zero	40
	.size	go..C3, 40

	.type	go..C4,@object
	.section	.rodata.go..C4,"a",@progbits
	.p2align	4
go..C4:
	.quad	go..C2
	.quad	0
	.quad	go..C3
	.quad	0
	.quad	0
	.size	go..C4, 40

	.type	type...1string,@object
	.section	.rodata.type...1string,"aG",@progbits,type...1string,comdat
	.weak	type...1string
	.p2align	4
type...1string:
	.quad	8
	.quad	8
	.long	2376493481
	.byte	54
	.byte	8
	.byte	8
	.zero	1
	.quad	runtime.memhash64..f
	.quad	runtime.memequal64..f
	.quad	gcbits..ba
	.quad	go..C5
	.quad	0
	.quad	0
	.quad	string..d
	.size	type...1string, 80

	.type	.Lconst.6,@object
	.section	.rodata..Lconst.6,"a",@progbits
.Lconst.6:
	.asciz	"*string"
	.size	.Lconst.6, 8

	.type	go..C5,@object
	.section	.rodata.go..C5,"a",@progbits
	.p2align	3
go..C5:
	.quad	.Lconst.6
	.quad	7
	.size	go..C5, 16

	.type	.Lconst.7,@object
	.section	.rodata..Lconst.7,"a",@progbits
.Lconst.7:
	.asciz	"echo \"%s\"\n"
	.size	.Lconst.7, 11

	.type	command_line_arguments.Echo..f,@object
	.section	.rodata.command_line_arguments.Echo..f,"a",@progbits
	.globl	command_line_arguments.Echo..f
	.p2align	3
command_line_arguments.Echo..f:
	.quad	command_line_arguments.Echo
	.size	command_line_arguments.Echo..f, 8

	.type	.Lconst.9,@object
	.section	.rodata..Lconst.9,"a",@progbits
.Lconst.9:
	.asciz	"%s\n"
	.size	.Lconst.9, 4

	.type	command_line_arguments.Command..f,@object
	.section	.rodata.command_line_arguments.Command..f,"a",@progbits
	.globl	command_line_arguments.Command..f
	.p2align	3
command_line_arguments.Command..f:
	.quad	command_line_arguments.Command
	.size	command_line_arguments.Command..f, 8

	.type	type...612x.7uint8,@object
	.section	.rodata.type...612x.7uint8,"aG",@progbits,type...612x.7uint8,comdat
	.weak	type...612x.7uint8
	.p2align	4
type...612x.7uint8:
	.quad	12
	.quad	0
	.long	529264193
	.byte	145
	.byte	1
	.byte	1
	.zero	1
	.quad	0
	.quad	0
	.quad	0
	.quad	go..C6
	.quad	0
	.quad	0
	.quad	uint8..d
	.quad	type...6.7uint8
	.quad	12
	.size	type...612x.7uint8, 96

	.type	.Lconst.11,@object
	.section	.rodata..Lconst.11,"a",@progbits
.Lconst.11:
	.asciz	"[12]uint8"
	.size	.Lconst.11, 10

	.type	go..C6,@object
	.section	.rodata.go..C6,"a",@progbits
	.p2align	3
go..C6:
	.quad	.Lconst.11
	.quad	9
	.size	go..C6, 16

	.type	uint8..d,@object
	.section	.rodata.uint8..d,"aG",@progbits,uint8..d,comdat
	.weak	uint8..d
	.p2align	4
uint8..d:
	.quad	1
	.quad	0
	.long	264632089
	.byte	136
	.byte	1
	.byte	1
	.zero	1
	.quad	runtime.memhash8..f
	.quad	runtime.memequal8..f
	.quad	0
	.quad	go..C7
	.quad	go..C10
	.quad	type...1uint8
	.size	uint8..d, 72

	.type	.Lconst.12,@object
	.section	.rodata..Lconst.12,"a",@progbits
.Lconst.12:
	.asciz	"uint8"
	.size	.Lconst.12, 6

	.type	go..C7,@object
	.section	.rodata.go..C7,"a",@progbits
	.p2align	3
go..C7:
	.quad	.Lconst.12
	.quad	5
	.size	go..C7, 16

	.type	go..C8,@object
	.section	.rodata.go..C8,"a",@progbits
	.p2align	3
go..C8:
	.quad	.Lconst.12
	.quad	5
	.size	go..C8, 16

	.type	go..C9,@object
	.section	.bss.go..C9,"aw",@nobits
	.p2align	4
go..C9:
	.zero	40
	.size	go..C9, 40

	.type	go..C10,@object
	.section	.rodata.go..C10,"a",@progbits
	.p2align	4
go..C10:
	.quad	go..C8
	.quad	0
	.quad	go..C9
	.quad	0
	.quad	0
	.size	go..C10, 40

	.type	type...1uint8,@object
	.section	.rodata.type...1uint8,"aG",@progbits,type...1uint8,comdat
	.weak	type...1uint8
	.p2align	4
type...1uint8:
	.quad	8
	.quad	8
	.long	4234113433
	.byte	54
	.byte	8
	.byte	8
	.zero	1
	.quad	runtime.memhash64..f
	.quad	runtime.memequal64..f
	.quad	gcbits..ba
	.quad	go..C11
	.quad	0
	.quad	0
	.quad	uint8..d
	.size	type...1uint8, 80

	.type	.Lconst.13,@object
	.section	.rodata..Lconst.13,"a",@progbits
.Lconst.13:
	.asciz	"*uint8"
	.size	.Lconst.13, 7

	.type	go..C11,@object
	.section	.rodata.go..C11,"a",@progbits
	.p2align	3
go..C11:
	.quad	.Lconst.13
	.quad	6
	.size	go..C11, 16

	.type	type...6.7uint8,@object
	.section	.rodata.type...6.7uint8,"aG",@progbits,type...6.7uint8,comdat
	.weak	type...6.7uint8
	.p2align	4
type...6.7uint8:
	.quad	24
	.quad	8
	.long	264632103
	.byte	23
	.byte	8
	.byte	8
	.zero	1
	.quad	0
	.quad	0
	.quad	gcbits..ba
	.quad	go..C12
	.quad	0
	.quad	0
	.quad	uint8..d
	.size	type...6.7uint8, 80

	.type	.Lconst.14,@object
	.section	.rodata..Lconst.14,"a",@progbits
.Lconst.14:
	.asciz	"[]uint8"
	.size	.Lconst.14, 8

	.type	go..C12,@object
	.section	.rodata.go..C12,"a",@progbits
	.p2align	3
go..C12:
	.quad	.Lconst.14
	.quad	7
	.size	go..C12, 16

	.type	.Lconst.15,@object
	.section	.rodata..Lconst.15,"a",@progbits
.Lconst.15:
	.ascii	"#!/bin/bash\n"
	.size	.Lconst.15, 12

	.type	command_line_arguments.Script..f,@object
	.section	.rodata.command_line_arguments.Script..f,"a",@progbits
	.globl	command_line_arguments.Script..f
	.p2align	3
command_line_arguments.Script..f:
	.quad	command_line_arguments.Script
	.size	command_line_arguments.Script..f, 8

	.file	2 "<built-in>"
	.file	3 "<stdin>"
	.section	".note.GNU-split-stack","",@progbits
	.section	".note.GNU-stack","",@progbits