; ModuleID = 'gomodule'
source_filename = "gomodule"
target datalayout = "e-m:e-i64:64-f80:128-n8:16:32:64-S128"
target triple = "x86_64-unknown-linux-gnu"

module asm "\09.section \22.go_export\22,\22e\22,@progbits"
module asm "\09.ascii \22v2;\5Cn\22"
module asm "\09.ascii \22package \22"
module asm "\09.ascii \22logging\22"
module asm "\09.ascii \22;\5Cn\22"
module asm "\09.ascii \22pkgpath \22"
module asm "\09.ascii \22command-line-arguments\22"
module asm "\09.ascii \22;\5Cn\22"
module asm "\09.ascii \22import \22"
module asm "\09.ascii \22fmt\22"
module asm "\09.ascii \22 \22"
module asm "\09.ascii \22fmt\22"
module asm "\09.ascii \22 \5C\22\22"
module asm "\09.ascii \22fmt\22"
module asm "\09.ascii \22\5C\22;\5Cn\22"
module asm "\09.ascii \22init\22"
module asm "\09.ascii \22 \22"
module asm "\09.ascii \22logging\22"
module asm "\09.ascii \22 \22"
module asm "\09.ascii \22command_line_arguments..import\22"
module asm "\09.ascii \22 \22"
module asm "\09.ascii \22fmt\22"
module asm "\09.ascii \22 \22"
module asm "\09.ascii \22fmt..import\22"
module asm "\09.ascii \22 \22"
module asm "\09.ascii \22poll\22"
module asm "\09.ascii \22 \22"
module asm "\09.ascii \22internal_poll..import\22"
module asm "\09.ascii \22 \22"
module asm "\09.ascii \22testlog\22"
module asm "\09.ascii \22 \22"
module asm "\09.ascii \22internal_testlog..import\22"
module asm "\09.ascii \22 \22"
module asm "\09.ascii \22io\22"
module asm "\09.ascii \22 \22"
module asm "\09.ascii \22io..import\22"
module asm "\09.ascii \22 \22"
module asm "\09.ascii \22os\22"
module asm "\09.ascii \22 \22"
module asm "\09.ascii \22os..import\22"
module asm "\09.ascii \22 \22"
module asm "\09.ascii \22reflect\22"
module asm "\09.ascii \22 \22"
module asm "\09.ascii \22reflect..import\22"
module asm "\09.ascii \22 \22"
module asm "\09.ascii \22runtime\22"
module asm "\09.ascii \22 \22"
module asm "\09.ascii \22runtime..import\22"
module asm "\09.ascii \22 \22"
module asm "\09.ascii \22sys\22"
module asm "\09.ascii \22 \22"
module asm "\09.ascii \22runtime_internal_sys..import\22"
module asm "\09.ascii \22 \22"
module asm "\09.ascii \22strconv\22"
module asm "\09.ascii \22 \22"
module asm "\09.ascii \22strconv..import\22"
module asm "\09.ascii \22 \22"
module asm "\09.ascii \22sync\22"
module asm "\09.ascii \22 \22"
module asm "\09.ascii \22sync..import\22"
module asm "\09.ascii \22 \22"
module asm "\09.ascii \22syscall\22"
module asm "\09.ascii \22 \22"
module asm "\09.ascii \22syscall..import\22"
module asm "\09.ascii \22 \22"
module asm "\09.ascii \22time\22"
module asm "\09.ascii \22 \22"
module asm "\09.ascii \22time..import\22"
module asm "\09.ascii \22 \22"
module asm "\09.ascii \22unicode\22"
module asm "\09.ascii \22 \22"
module asm "\09.ascii \22unicode..import\22"
module asm "\09.ascii \22;\5Cn\22"
module asm "\09.ascii \22init_graph\22"
module asm "\09.ascii \22 \22"
module asm "\09.ascii \220\22"
module asm "\09.ascii \22 \22"
module asm "\09.ascii \221\22"
module asm "\09.ascii \22 \22"
module asm "\09.ascii \220\22"
module asm "\09.ascii \22 \22"
module asm "\09.ascii \222\22"
module asm "\09.ascii \22 \22"
module asm "\09.ascii \220\22"
module asm "\09.ascii \22 \22"
module asm "\09.ascii \223\22"
module asm "\09.ascii \22 \22"
module asm "\09.ascii \220\22"
module asm "\09.ascii \22 \22"
module asm "\09.ascii \224\22"
module asm "\09.ascii \22 \22"
module asm "\09.ascii \220\22"
module asm "\09.ascii \22 \22"
module asm "\09.ascii \225\22"
module asm "\09.ascii \22 \22"
module asm "\09.ascii \220\22"
module asm "\09.ascii \22 \22"
module asm "\09.ascii \226\22"
module asm "\09.ascii \22 \22"
module asm "\09.ascii \220\22"
module asm "\09.ascii \22 \22"
module asm "\09.ascii \227\22"
module asm "\09.ascii \22 \22"
module asm "\09.ascii \220\22"
module asm "\09.ascii \22 \22"
module asm "\09.ascii \228\22"
module asm "\09.ascii \22 \22"
module asm "\09.ascii \220\22"
module asm "\09.ascii \22 \22"
module asm "\09.ascii \229\22"
module asm "\09.ascii \22 \22"
module asm "\09.ascii \220\22"
module asm "\09.ascii \22 \22"
module asm "\09.ascii \2210\22"
module asm "\09.ascii \22 \22"
module asm "\09.ascii \220\22"
module asm "\09.ascii \22 \22"
module asm "\09.ascii \2211\22"
module asm "\09.ascii \22 \22"
module asm "\09.ascii \220\22"
module asm "\09.ascii \22 \22"
module asm "\09.ascii \2212\22"
module asm "\09.ascii \22 \22"
module asm "\09.ascii \220\22"
module asm "\09.ascii \22 \22"
module asm "\09.ascii \2213\22"
module asm "\09.ascii \22 \22"
module asm "\09.ascii \221\22"
module asm "\09.ascii \22 \22"
module asm "\09.ascii \222\22"
module asm "\09.ascii \22 \22"
module asm "\09.ascii \221\22"
module asm "\09.ascii \22 \22"
module asm "\09.ascii \223\22"
module asm "\09.ascii \22 \22"
module asm "\09.ascii \221\22"
module asm "\09.ascii \22 \22"
module asm "\09.ascii \224\22"
module asm "\09.ascii \22 \22"
module asm "\09.ascii \221\22"
module asm "\09.ascii \22 \22"
module asm "\09.ascii \225\22"
module asm "\09.ascii \22 \22"
module asm "\09.ascii \221\22"
module asm "\09.ascii \22 \22"
module asm "\09.ascii \226\22"
module asm "\09.ascii \22 \22"
module asm "\09.ascii \221\22"
module asm "\09.ascii \22 \22"
module asm "\09.ascii \227\22"
module asm "\09.ascii \22 \22"
module asm "\09.ascii \221\22"
module asm "\09.ascii \22 \22"
module asm "\09.ascii \228\22"
module asm "\09.ascii \22 \22"
module asm "\09.ascii \221\22"
module asm "\09.ascii \22 \22"
module asm "\09.ascii \229\22"
module asm "\09.ascii \22 \22"
module asm "\09.ascii \221\22"
module asm "\09.ascii \22 \22"
module asm "\09.ascii \2210\22"
module asm "\09.ascii \22 \22"
module asm "\09.ascii \221\22"
module asm "\09.ascii \22 \22"
module asm "\09.ascii \2211\22"
module asm "\09.ascii \22 \22"
module asm "\09.ascii \221\22"
module asm "\09.ascii \22 \22"
module asm "\09.ascii \2212\22"
module asm "\09.ascii \22 \22"
module asm "\09.ascii \221\22"
module asm "\09.ascii \22 \22"
module asm "\09.ascii \2213\22"
module asm "\09.ascii \22 \22"
module asm "\09.ascii \222\22"
module asm "\09.ascii \22 \22"
module asm "\09.ascii \224\22"
module asm "\09.ascii \22 \22"
module asm "\09.ascii \222\22"
module asm "\09.ascii \22 \22"
module asm "\09.ascii \227\22"
module asm "\09.ascii \22 \22"
module asm "\09.ascii \222\22"
module asm "\09.ascii \22 \22"
module asm "\09.ascii \228\22"
module asm "\09.ascii \22 \22"
module asm "\09.ascii \222\22"
module asm "\09.ascii \22 \22"
module asm "\09.ascii \2210\22"
module asm "\09.ascii \22 \22"
module asm "\09.ascii \222\22"
module asm "\09.ascii \22 \22"
module asm "\09.ascii \2211\22"
module asm "\09.ascii \22 \22"
module asm "\09.ascii \222\22"
module asm "\09.ascii \22 \22"
module asm "\09.ascii \2212\22"
module asm "\09.ascii \22 \22"
module asm "\09.ascii \224\22"
module asm "\09.ascii \22 \22"
module asm "\09.ascii \227\22"
module asm "\09.ascii \22 \22"
module asm "\09.ascii \224\22"
module asm "\09.ascii \22 \22"
module asm "\09.ascii \228\22"
module asm "\09.ascii \22 \22"
module asm "\09.ascii \224\22"
module asm "\09.ascii \22 \22"
module asm "\09.ascii \2210\22"
module asm "\09.ascii \22 \22"
module asm "\09.ascii \225\22"
module asm "\09.ascii \22 \22"
module asm "\09.ascii \222\22"
module asm "\09.ascii \22 \22"
module asm "\09.ascii \225\22"
module asm "\09.ascii \22 \22"
module asm "\09.ascii \223\22"
module asm "\09.ascii \22 \22"
module asm "\09.ascii \225\22"
module asm "\09.ascii \22 \22"
module asm "\09.ascii \224\22"
module asm "\09.ascii \22 \22"
module asm "\09.ascii \225\22"
module asm "\09.ascii \22 \22"
module asm "\09.ascii \227\22"
module asm "\09.ascii \22 \22"
module asm "\09.ascii \225\22"
module asm "\09.ascii \22 \22"
module asm "\09.ascii \228\22"
module asm "\09.ascii \22 \22"
module asm "\09.ascii \225\22"
module asm "\09.ascii \22 \22"
module asm "\09.ascii \2210\22"
module asm "\09.ascii \22 \22"
module asm "\09.ascii \225\22"
module asm "\09.ascii \22 \22"
module asm "\09.ascii \2211\22"
module asm "\09.ascii \22 \22"
module asm "\09.ascii \225\22"
module asm "\09.ascii \22 \22"
module asm "\09.ascii \2212\22"
module asm "\09.ascii \22 \22"
module asm "\09.ascii \226\22"
module asm "\09.ascii \22 \22"
module asm "\09.ascii \227\22"
module asm "\09.ascii \22 \22"
module asm "\09.ascii \226\22"
module asm "\09.ascii \22 \22"
module asm "\09.ascii \228\22"
module asm "\09.ascii \22 \22"
module asm "\09.ascii \226\22"
module asm "\09.ascii \22 \22"
module asm "\09.ascii \229\22"
module asm "\09.ascii \22 \22"
module asm "\09.ascii \226\22"
module asm "\09.ascii \22 \22"
module asm "\09.ascii \2210\22"
module asm "\09.ascii \22 \22"
module asm "\09.ascii \226\22"
module asm "\09.ascii \22 \22"
module asm "\09.ascii \2213\22"
module asm "\09.ascii \22 \22"
module asm "\09.ascii \227\22"
module asm "\09.ascii \22 \22"
module asm "\09.ascii \228\22"
module asm "\09.ascii \22 \22"
module asm "\09.ascii \229\22"
module asm "\09.ascii \22 \22"
module asm "\09.ascii \227\22"
module asm "\09.ascii \22 \22"
module asm "\09.ascii \229\22"
module asm "\09.ascii \22 \22"
module asm "\09.ascii \228\22"
module asm "\09.ascii \22 \22"
module asm "\09.ascii \2210\22"
module asm "\09.ascii \22 \22"
module asm "\09.ascii \227\22"
module asm "\09.ascii \22 \22"
module asm "\09.ascii \2210\22"
module asm "\09.ascii \22 \22"
module asm "\09.ascii \228\22"
module asm "\09.ascii \22 \22"
module asm "\09.ascii \2211\22"
module asm "\09.ascii \22 \22"
module asm "\09.ascii \227\22"
module asm "\09.ascii \22 \22"
module asm "\09.ascii \2211\22"
module asm "\09.ascii \22 \22"
module asm "\09.ascii \228\22"
module asm "\09.ascii \22 \22"
module asm "\09.ascii \2211\22"
module asm "\09.ascii \22 \22"
module asm "\09.ascii \2210\22"
module asm "\09.ascii \22 \22"
module asm "\09.ascii \2212\22"
module asm "\09.ascii \22 \22"
module asm "\09.ascii \227\22"
module asm "\09.ascii \22 \22"
module asm "\09.ascii \2212\22"
module asm "\09.ascii \22 \22"
module asm "\09.ascii \228\22"
module asm "\09.ascii \22 \22"
module asm "\09.ascii \2212\22"
module asm "\09.ascii \22 \22"
module asm "\09.ascii \2210\22"
module asm "\09.ascii \22 \22"
module asm "\09.ascii \2212\22"
module asm "\09.ascii \22 \22"
module asm "\09.ascii \2211\22"
module asm "\09.ascii \22;\5Cn\22"
module asm "\09.ascii \22type \22"
module asm "\09.ascii \22<type 1 \22"
module asm "\09.ascii \22\5C\22DefaultLogger\5C\22 \22"
module asm "\09.ascii \22<type 2 \22"
module asm "\09.ascii \22struct { \22"
module asm "\09.ascii \22}\22"
module asm "\09.ascii \22>\22"
module asm "\09.ascii \22\5Cn\22"
module asm "\09.ascii \22 \22"
module asm "\09.ascii \22func \22"
module asm "\09.ascii \22(\22"
module asm "\09.ascii \22l\22"
module asm "\09.ascii \22 \22"
module asm "\09.ascii \22<esc:0x1>\22"
module asm "\09.ascii \22 \22"
module asm "\09.ascii \22<type 3 \22"
module asm "\09.ascii \22*\22"
module asm "\09.ascii \22<type 1>\22"
module asm "\09.ascii \22>\22"
module asm "\09.ascii \22) \22"
module asm "\09.ascii \22Printf\22"
module asm "\09.ascii \22 (\22"
module asm "\09.ascii \22format\22"
module asm "\09.ascii \22 \22"
module asm "\09.ascii \22<esc:0x1>\22"
module asm "\09.ascii \22 \22"
module asm "\09.ascii \22<type -16>\22"
module asm "\09.ascii \22, \22"
module asm "\09.ascii \22a\22"
module asm "\09.ascii \22 \22"
module asm "\09.ascii \22<esc:0x9>\22"
module asm "\09.ascii \22 \22"
module asm "\09.ascii \22...\22"
module asm "\09.ascii \22<type 4 \22"
module asm "\09.ascii \22interface { \22"
module asm "\09.ascii \22}\22"
module asm "\09.ascii \22>\22"
module asm "\09.ascii \22)\22"
module asm "\09.ascii \22;\5Cn\22"
module asm "\09.ascii \22>\22"
module asm "\09.ascii \22;\5Cn\22"
module asm "\09.ascii \22var \22"
module asm "\09.ascii \22Logger\22"
module asm "\09.ascii \22 \22"
module asm "\09.ascii \22<type 5 \22"
module asm "\09.ascii \22\5C\22.command-line-arguments.logger\5C\22 \22"
module asm "\09.ascii \22<type 6 \22"
module asm "\09.ascii \22interface { \22"
module asm "\09.ascii \22Printf\22"
module asm "\09.ascii \22 (\22"
module asm "\09.ascii \22?\22"
module asm "\09.ascii \22 \22"
module asm "\09.ascii \22<type -16>\22"
module asm "\09.ascii \22, \22"
module asm "\09.ascii \22?\22"
module asm "\09.ascii \22 \22"
module asm "\09.ascii \22...\22"
module asm "\09.ascii \22<type 7 \22"
module asm "\09.ascii \22interface { \22"
module asm "\09.ascii \22}\22"
module asm "\09.ascii \22>\22"
module asm "\09.ascii \22)\22"
module asm "\09.ascii \22; \22"
module asm "\09.ascii \22}\22"
module asm "\09.ascii \22>\22"
module asm "\09.ascii \22>\22"
module asm "\09.ascii \22;\5Cn\22"
module asm "\09.ascii \22type \22"
module asm "\09.ascii \22<type 8 \22"
module asm "\09.ascii \22\5C\22NullLogger\5C\22 \22"
module asm "\09.ascii \22<type 9 \22"
module asm "\09.ascii \22struct { \22"
module asm "\09.ascii \22}\22"
module asm "\09.ascii \22>\22"
module asm "\09.ascii \22\5Cn\22"
module asm "\09.ascii \22 \22"
module asm "\09.ascii \22func \22"
module asm "\09.ascii \22(\22"
module asm "\09.ascii \22l\22"
module asm "\09.ascii \22 \22"
module asm "\09.ascii \22<esc:0x1>\22"
module asm "\09.ascii \22 \22"
module asm "\09.ascii \22<type 10 \22"
module asm "\09.ascii \22*\22"
module asm "\09.ascii \22<type 8>\22"
module asm "\09.ascii \22>\22"
module asm "\09.ascii \22) \22"
module asm "\09.ascii \22Printf\22"
module asm "\09.ascii \22 (\22"
module asm "\09.ascii \22format\22"
module asm "\09.ascii \22 \22"
module asm "\09.ascii \22<esc:0x1>\22"
module asm "\09.ascii \22 \22"
module asm "\09.ascii \22<type -16>\22"
module asm "\09.ascii \22, \22"
module asm "\09.ascii \22a\22"
module asm "\09.ascii \22 \22"
module asm "\09.ascii \22<esc:0x1>\22"
module asm "\09.ascii \22 \22"
module asm "\09.ascii \22...\22"
module asm "\09.ascii \22<type 11 \22"
module asm "\09.ascii \22interface { \22"
module asm "\09.ascii \22}\22"
module asm "\09.ascii \22>\22"
module asm "\09.ascii \22)\22"
module asm "\09.ascii \22;\5Cn\22"
module asm "\09.ascii \22>\22"
module asm "\09.ascii \22;\5Cn\22"
module asm "\09.ascii \22func \22"
module asm "\09.ascii \22SetLogger\22"
module asm "\09.ascii \22 (\22"
module asm "\09.ascii \22l\22"
module asm "\09.ascii \22 \22"
module asm "\09.ascii \22<type 5>\22"
module asm "\09.ascii \22)\22"
module asm "\09.ascii \22;\5Cn\22"
module asm "\09.ascii \22func \22"
module asm "\09.ascii \22command_line_arguments..init0\22"
module asm "\09.ascii \22 (\22"
module asm "\09.ascii \22)\22"
module asm "\09.ascii \22;\5Cn\22"
module asm "\09.ascii \22checksum BFDDD1B576EDAA140520BDD92902A0205EA5C8F3;\5Cn\22"
module asm "\09.text"

%.command-line-arguments.logger.0 = type { { %_type.0*, void (i8*, i8*, i64, i64, %IPST.0*)* }*, i8* }
%_type.0 = type { i64, i64, i32, i8, i8, i8, %__go_descriptor.0*, %__go_descriptor.1*, i8*, { i8*, i64 }*, %uncommonType.0*, %_type.0* }
%__go_descriptor.0 = type { i64 (i8*, i8*, i64)* }
%__go_descriptor.1 = type { i8 (i8*, i8*, i8*)* }
%uncommonType.0 = type { { i8*, i64 }*, { i8*, i64 }*, %IPST.1 }
%IPST.1 = type { %method.0*, i64, i64 }
%method.0 = type { { i8*, i64 }*, { i8*, i64 }*, %_type.0*, %_type.0*, i8* }
%IPST.0 = type { { %_type.0*, i8* }*, i64, i64 }
%PtrType.0 = type { %_type.0, %_type.0* }
%functionDescriptor.0 = type { i64 }
%FuncType.0 = type { %_type.0, i8, %IPST.2, %IPST.2 }
%IPST.2 = type { %_type.0**, i64, i64 }
%SliceType.0 = type { %_type.0, %_type.0* }
%InterfaceType.0 = type { %_type.0, %IPST.4 }
%IPST.4 = type { %imethod.0*, i64, i64 }
%imethod.0 = type { { i8*, i64 }*, { i8*, i64 }*, %_type.0* }
%StructType.0 = type { %_type.0, %IPST.3 }
%IPST.3 = type { %structField.0*, i64, i64 }
%structField.0 = type { { i8*, i64 }*, { i8*, i64 }*, %_type.0*, { i8*, i64 }*, i64 }
%NullLogger.0 = type {}
%DefaultLogger.0 = type {}
%error.0 = type { { %_type.0*, { i64, i64 } (i8*, i8*)* }*, i8* }

$type...1command_line_arguments.NullLogger = comdat any

$gcbits..ba = comdat any

$type..func.8string.3.3.3.3.6.7interface.4.5.9.8.9 = comdat any

$string..d = comdat any

$type...1string = comdat any

$type...6.7interface.4.5 = comdat any

$type..interface.4.5 = comdat any

$gcbits..da = comdat any

$type..func.8.1command_line_arguments.NullLogger.3string.3.6.7interface.4.5.9.8.9 = comdat any

$type...1.1command_line_arguments.NullLogger = comdat any

$pimt..interface.4Printf.0func.8string.3.3.3.3.6.7interface.4.5.9.8.9.5..command_line_arguments.NullLogger = comdat any

$type...1command_line_arguments.logger = comdat any

$type...1command_line_arguments.DefaultLogger = comdat any

$type..func.8.1command_line_arguments.DefaultLogger.3string.3.6.7interface.4.5.9.8.9 = comdat any

$type...1.1command_line_arguments.DefaultLogger = comdat any

$gcbits..ha = comdat any

$gcbits..Ga = comdat any

@command_line_arguments.Logger = global %.command-line-arguments.logger.0 zeroinitializer
@type...1command_line_arguments.NullLogger = weak constant %PtrType.0 { %_type.0 { i64 8, i64 8, i32 -295736839, i8 54, i8 8, i8 8, %__go_descriptor.0* bitcast (%functionDescriptor.0* @runtime.memhash64..f to %__go_descriptor.0*), %__go_descriptor.1* bitcast (%functionDescriptor.0* @runtime.memequal64..f to %__go_descriptor.1*), i8* getelementptr inbounds ([1 x i8], [1 x i8]* @gcbits..ba, i32 0, i32 0), { i8*, i64 }* @go..C1, %uncommonType.0* @go..C18, %_type.0* getelementptr inbounds (%PtrType.0, %PtrType.0* @type...1.1command_line_arguments.NullLogger, i32 0, i32 0) }, %_type.0* getelementptr inbounds (%StructType.0, %StructType.0* @command_line_arguments.NullLogger..d, i32 0, i32 0) }, comdat
@runtime.memhash64..f = external constant %functionDescriptor.0
@runtime.memequal64..f = external constant %functionDescriptor.0
@gcbits..ba = weak constant [1 x i8] c"\01", comdat
@const.0 = private constant [44 x i8] c"*\09command_line_arguments\09logging.NullLogger\00", align 1
@go..C1 = internal constant { i8*, i64 } { i8* getelementptr inbounds ([44 x i8], [44 x i8]* @const.0, i32 0, i32 0), i64 43 }
@const.1 = private constant [7 x i8] c"Printf\00", align 1
@go..C2 = internal constant { i8*, i64 } { i8* getelementptr inbounds ([7 x i8], [7 x i8]* @const.1, i32 0, i32 0), i64 6 }
@type..func.8string.3.3.3.3.6.7interface.4.5.9.8.9 = weak constant %FuncType.0 { %_type.0 { i64 8, i64 8, i32 458021592, i8 19, i8 8, i8 8, %__go_descriptor.0* null, %__go_descriptor.1* null, i8* getelementptr inbounds ([1 x i8], [1 x i8]* @gcbits..ba, i32 0, i32 0), { i8*, i64 }* @go..C3, %uncommonType.0* null, %_type.0* null }, i8 1, %IPST.2 { %_type.0** getelementptr inbounds ([2 x %_type.0*], [2 x %_type.0*]* @go..C12, i32 0, i32 0), i64 2, i64 2 }, %IPST.2 { %_type.0** getelementptr inbounds ([1 x %_type.0*], [1 x %_type.0*]* @go..C13, i32 0, i32 0), i64 0, i64 0 } }, comdat
@const.2 = private constant [30 x i8] c"func(string, ...interface {})\00", align 1
@go..C3 = internal constant { i8*, i64 } { i8* getelementptr inbounds ([30 x i8], [30 x i8]* @const.2, i32 0, i32 0), i64 29 }
@string..d = weak constant %_type.0 { i64 16, i64 8, i32 -1998952806, i8 24, i8 8, i8 8, %__go_descriptor.0* bitcast (%functionDescriptor.0* @runtime.strhash..f to %__go_descriptor.0*), %__go_descriptor.1* bitcast (%functionDescriptor.0* @runtime.strequal..f to %__go_descriptor.1*), i8* getelementptr inbounds ([1 x i8], [1 x i8]* @gcbits..ba, i32 0, i32 0), { i8*, i64 }* @go..C4, %uncommonType.0* @go..C7, %_type.0* getelementptr inbounds (%PtrType.0, %PtrType.0* @type...1string, i32 0, i32 0) }, comdat
@runtime.strhash..f = external constant %functionDescriptor.0
@runtime.strequal..f = external constant %functionDescriptor.0
@const.3 = private constant [7 x i8] c"string\00", align 1
@go..C4 = internal constant { i8*, i64 } { i8* getelementptr inbounds ([7 x i8], [7 x i8]* @const.3, i32 0, i32 0), i64 6 }
@go..C5 = internal constant { i8*, i64 } { i8* getelementptr inbounds ([7 x i8], [7 x i8]* @const.3, i32 0, i32 0), i64 6 }
@go..C6 = internal global [1 x %method.0] zeroinitializer
@go..C7 = internal constant %uncommonType.0 { { i8*, i64 }* @go..C5, { i8*, i64 }* null, %IPST.1 { %method.0* getelementptr inbounds ([1 x %method.0], [1 x %method.0]* @go..C6, i32 0, i32 0), i64 0, i64 0 } }
@type...1string = weak constant %PtrType.0 { %_type.0 { i64 8, i64 8, i32 -1918473815, i8 54, i8 8, i8 8, %__go_descriptor.0* bitcast (%functionDescriptor.0* @runtime.memhash64..f to %__go_descriptor.0*), %__go_descriptor.1* bitcast (%functionDescriptor.0* @runtime.memequal64..f to %__go_descriptor.1*), i8* getelementptr inbounds ([1 x i8], [1 x i8]* @gcbits..ba, i32 0, i32 0), { i8*, i64 }* @go..C8, %uncommonType.0* null, %_type.0* null }, %_type.0* @string..d }, comdat
@const.4 = private constant [8 x i8] c"*string\00", align 1
@go..C8 = internal constant { i8*, i64 } { i8* getelementptr inbounds ([8 x i8], [8 x i8]* @const.4, i32 0, i32 0), i64 7 }
@type...6.7interface.4.5 = weak constant %SliceType.0 { %_type.0 { i64 24, i64 8, i32 30, i8 23, i8 8, i8 8, %__go_descriptor.0* null, %__go_descriptor.1* null, i8* getelementptr inbounds ([1 x i8], [1 x i8]* @gcbits..ba, i32 0, i32 0), { i8*, i64 }* @go..C9, %uncommonType.0* null, %_type.0* null }, %_type.0* getelementptr inbounds (%InterfaceType.0, %InterfaceType.0* @type..interface.4.5, i32 0, i32 0) }, comdat
@const.5 = private constant [15 x i8] c"[]interface {}\00", align 1
@go..C9 = internal constant { i8*, i64 } { i8* getelementptr inbounds ([15 x i8], [15 x i8]* @const.5, i32 0, i32 0), i64 14 }
@type..interface.4.5 = weak constant %InterfaceType.0 { %_type.0 { i64 16, i64 16, i32 16, i8 20, i8 8, i8 8, %__go_descriptor.0* bitcast (%functionDescriptor.0* @runtime.nilinterhash..f to %__go_descriptor.0*), %__go_descriptor.1* bitcast (%functionDescriptor.0* @runtime.nilinterequal..f to %__go_descriptor.1*), i8* getelementptr inbounds ([1 x i8], [1 x i8]* @gcbits..da, i32 0, i32 0), { i8*, i64 }* @go..C10, %uncommonType.0* null, %_type.0* null }, %IPST.4 { %imethod.0* getelementptr inbounds ([1 x %imethod.0], [1 x %imethod.0]* @go..C11, i32 0, i32 0), i64 0, i64 0 } }, comdat
@runtime.nilinterhash..f = external constant %functionDescriptor.0
@runtime.nilinterequal..f = external constant %functionDescriptor.0
@gcbits..da = weak constant [1 x i8] c"\03", comdat
@const.6 = private constant [13 x i8] c"interface {}\00", align 1
@go..C10 = internal constant { i8*, i64 } { i8* getelementptr inbounds ([13 x i8], [13 x i8]* @const.6, i32 0, i32 0), i64 12 }
@go..C11 = internal global [1 x %imethod.0] zeroinitializer
@go..C12 = internal global [2 x %_type.0*] [%_type.0* @string..d, %_type.0* getelementptr inbounds (%SliceType.0, %SliceType.0* @type...6.7interface.4.5, i32 0, i32 0)]
@go..C13 = internal global [1 x %_type.0*] zeroinitializer
@type..func.8.1command_line_arguments.NullLogger.3string.3.6.7interface.4.5.9.8.9 = weak constant %FuncType.0 { %_type.0 { i64 8, i64 8, i32 42398888, i8 19, i8 8, i8 8, %__go_descriptor.0* null, %__go_descriptor.1* null, i8* getelementptr inbounds ([1 x i8], [1 x i8]* @gcbits..ba, i32 0, i32 0), { i8*, i64 }* @go..C14, %uncommonType.0* null, %_type.0* null }, i8 0, %IPST.2 { %_type.0** getelementptr inbounds ([3 x %_type.0*], [3 x %_type.0*]* @go..C15, i32 0, i32 0), i64 3, i64 3 }, %IPST.2 { %_type.0** getelementptr inbounds ([1 x %_type.0*], [1 x %_type.0*]* @go..C16, i32 0, i32 0), i64 0, i64 0 } }, comdat
@const.7 = private constant [74 x i8] c"func(*\09command_line_arguments\09logging.NullLogger, string, []interface {})\00", align 1
@go..C14 = internal constant { i8*, i64 } { i8* getelementptr inbounds ([74 x i8], [74 x i8]* @const.7, i32 0, i32 0), i64 73 }
@go..C15 = internal global [3 x %_type.0*] [%_type.0* getelementptr inbounds (%PtrType.0, %PtrType.0* @type...1command_line_arguments.NullLogger, i32 0, i32 0), %_type.0* @string..d, %_type.0* getelementptr inbounds (%SliceType.0, %SliceType.0* @type...6.7interface.4.5, i32 0, i32 0)]
@go..C16 = internal global [1 x %_type.0*] zeroinitializer
@go..C17 = internal global [1 x %method.0] [%method.0 { { i8*, i64 }* @go..C2, { i8*, i64 }* null, %_type.0* getelementptr inbounds (%FuncType.0, %FuncType.0* @type..func.8string.3.3.3.3.6.7interface.4.5.9.8.9, i32 0, i32 0), %_type.0* getelementptr inbounds (%FuncType.0, %FuncType.0* @type..func.8.1command_line_arguments.NullLogger.3string.3.6.7interface.4.5.9.8.9, i32 0, i32 0), i8* bitcast (void (i8*, %NullLogger.0*, i64, i64, %IPST.0*)* @command_line_arguments.NullLogger.Printf to i8*) }]
@go..C18 = internal constant %uncommonType.0 { { i8*, i64 }* null, { i8*, i64 }* null, %IPST.1 { %method.0* getelementptr inbounds ([1 x %method.0], [1 x %method.0]* @go..C17, i32 0, i32 0), i64 1, i64 1 } }
@type...1.1command_line_arguments.NullLogger = weak constant %PtrType.0 { %_type.0 { i64 8, i64 8, i32 -436822119, i8 54, i8 8, i8 8, %__go_descriptor.0* bitcast (%functionDescriptor.0* @runtime.memhash64..f to %__go_descriptor.0*), %__go_descriptor.1* bitcast (%functionDescriptor.0* @runtime.memequal64..f to %__go_descriptor.1*), i8* getelementptr inbounds ([1 x i8], [1 x i8]* @gcbits..ba, i32 0, i32 0), { i8*, i64 }* @go..C19, %uncommonType.0* null, %_type.0* null }, %_type.0* getelementptr inbounds (%PtrType.0, %PtrType.0* @type...1command_line_arguments.NullLogger, i32 0, i32 0) }, comdat
@const.8 = private constant [45 x i8] c"**\09command_line_arguments\09logging.NullLogger\00", align 1
@go..C19 = internal constant { i8*, i64 } { i8* getelementptr inbounds ([45 x i8], [45 x i8]* @const.8, i32 0, i32 0), i64 44 }
@command_line_arguments.NullLogger..d = constant %StructType.0 { %_type.0 { i64 0, i64 0, i32 -1360660833, i8 -103, i8 1, i8 1, %__go_descriptor.0* bitcast (%functionDescriptor.0* @runtime.memhash0..f to %__go_descriptor.0*), %__go_descriptor.1* bitcast (%functionDescriptor.0* @runtime.memequal0..f to %__go_descriptor.1*), i8* null, { i8*, i64 }* @go..C20, %uncommonType.0* @go..C24, %_type.0* getelementptr inbounds (%PtrType.0, %PtrType.0* @type...1command_line_arguments.NullLogger, i32 0, i32 0) }, %IPST.3 { %structField.0* getelementptr inbounds ([1 x %structField.0], [1 x %structField.0]* @go..C25, i32 0, i32 0), i64 0, i64 0 } }
@runtime.memhash0..f = external constant %functionDescriptor.0
@runtime.memequal0..f = external constant %functionDescriptor.0
@const.9 = private constant [43 x i8] c"\09command_line_arguments\09logging.NullLogger\00", align 1
@go..C20 = internal constant { i8*, i64 } { i8* getelementptr inbounds ([43 x i8], [43 x i8]* @const.9, i32 0, i32 0), i64 42 }
@const.10 = private constant [11 x i8] c"NullLogger\00", align 1
@go..C21 = internal constant { i8*, i64 } { i8* getelementptr inbounds ([11 x i8], [11 x i8]* @const.10, i32 0, i32 0), i64 10 }
@const.11 = private constant [23 x i8] c"command-line-arguments\00", align 1
@go..C22 = internal constant { i8*, i64 } { i8* getelementptr inbounds ([23 x i8], [23 x i8]* @const.11, i32 0, i32 0), i64 22 }
@go..C23 = internal global [1 x %method.0] zeroinitializer
@go..C24 = internal constant %uncommonType.0 { { i8*, i64 }* @go..C21, { i8*, i64 }* @go..C22, %IPST.1 { %method.0* getelementptr inbounds ([1 x %method.0], [1 x %method.0]* @go..C23, i32 0, i32 0), i64 0, i64 0 } }
@go..C25 = internal global [1 x %structField.0] zeroinitializer
@pimt..interface.4Printf.0func.8string.3.3.3.3.6.7interface.4.5.9.8.9.5..command_line_arguments.NullLogger = weak constant { %_type.0*, void (i8*, %NullLogger.0*, i64, i64, %IPST.0*)* } { %_type.0* getelementptr inbounds (%PtrType.0, %PtrType.0* @type...1command_line_arguments.NullLogger, i32 0, i32 0), void (i8*, %NullLogger.0*, i64, i64, %IPST.0*)* @command_line_arguments.NullLogger.Printf }, comdat
@runtime.writeBarrier = external local_unnamed_addr externally_initialized global i32
@command_line_arguments..command_line_arguments.logger..d = constant %InterfaceType.0 { %_type.0 { i64 16, i64 16, i32 -546930070, i8 20, i8 8, i8 8, %__go_descriptor.0* bitcast (%functionDescriptor.0* @runtime.interhash..f to %__go_descriptor.0*), %__go_descriptor.1* bitcast (%functionDescriptor.0* @runtime.interequal..f to %__go_descriptor.1*), i8* getelementptr inbounds ([1 x i8], [1 x i8]* @gcbits..da, i32 0, i32 0), { i8*, i64 }* @go..C26, %uncommonType.0* @go..C30, %_type.0* getelementptr inbounds (%PtrType.0, %PtrType.0* @type...1command_line_arguments.logger, i32 0, i32 0) }, %IPST.4 { %imethod.0* getelementptr inbounds ([1 x %imethod.0], [1 x %imethod.0]* @go..C33, i32 0, i32 0), i64 1, i64 1 } }
@runtime.interhash..f = external constant %functionDescriptor.0
@runtime.interequal..f = external constant %functionDescriptor.0
@const.12 = private constant [39 x i8] c"\09command_line_arguments\09logging.logger\00", align 1
@go..C26 = internal constant { i8*, i64 } { i8* getelementptr inbounds ([39 x i8], [39 x i8]* @const.12, i32 0, i32 0), i64 38 }
@const.13 = private constant [7 x i8] c"logger\00", align 1
@go..C27 = internal constant { i8*, i64 } { i8* getelementptr inbounds ([7 x i8], [7 x i8]* @const.13, i32 0, i32 0), i64 6 }
@go..C28 = internal constant { i8*, i64 } { i8* getelementptr inbounds ([23 x i8], [23 x i8]* @const.11, i32 0, i32 0), i64 22 }
@go..C29 = internal global [1 x %method.0] zeroinitializer
@go..C30 = internal constant %uncommonType.0 { { i8*, i64 }* @go..C27, { i8*, i64 }* @go..C28, %IPST.1 { %method.0* getelementptr inbounds ([1 x %method.0], [1 x %method.0]* @go..C29, i32 0, i32 0), i64 0, i64 0 } }
@type...1command_line_arguments.logger = weak constant %PtrType.0 { %_type.0 { i64 8, i64 8, i32 -160946519, i8 54, i8 8, i8 8, %__go_descriptor.0* bitcast (%functionDescriptor.0* @runtime.memhash64..f to %__go_descriptor.0*), %__go_descriptor.1* bitcast (%functionDescriptor.0* @runtime.memequal64..f to %__go_descriptor.1*), i8* getelementptr inbounds ([1 x i8], [1 x i8]* @gcbits..ba, i32 0, i32 0), { i8*, i64 }* @go..C31, %uncommonType.0* null, %_type.0* null }, %_type.0* getelementptr inbounds (%InterfaceType.0, %InterfaceType.0* @command_line_arguments..command_line_arguments.logger..d, i32 0, i32 0) }, comdat
@const.14 = private constant [40 x i8] c"*\09command_line_arguments\09logging.logger\00", align 1
@go..C31 = internal constant { i8*, i64 } { i8* getelementptr inbounds ([40 x i8], [40 x i8]* @const.14, i32 0, i32 0), i64 39 }
@go..C32 = internal constant { i8*, i64 } { i8* getelementptr inbounds ([7 x i8], [7 x i8]* @const.1, i32 0, i32 0), i64 6 }
@go..C33 = internal global [1 x %imethod.0] [%imethod.0 { { i8*, i64 }* @go..C32, { i8*, i64 }* null, %_type.0* getelementptr inbounds (%FuncType.0, %FuncType.0* @type..func.8string.3.3.3.3.6.7interface.4.5.9.8.9, i32 0, i32 0) }]
@command_line_arguments.command_line_arguments..init0..f = local_unnamed_addr constant %functionDescriptor.0 { i64 ptrtoint (void (i8*)* @command_line_arguments.command_line_arguments..init0 to i64) }
@command_line_arguments.SetLogger..f = local_unnamed_addr constant %functionDescriptor.0 { i64 ptrtoint (void (i8*, i64, i64)* @command_line_arguments.SetLogger to i64) }
@command_line_arguments.DefaultLogger..d = constant %StructType.0 { %_type.0 { i64 0, i64 0, i32 -1014572753, i8 -103, i8 1, i8 1, %__go_descriptor.0* bitcast (%functionDescriptor.0* @runtime.memhash0..f to %__go_descriptor.0*), %__go_descriptor.1* bitcast (%functionDescriptor.0* @runtime.memequal0..f to %__go_descriptor.1*), i8* null, { i8*, i64 }* @go..C34, %uncommonType.0* @go..C38, %_type.0* getelementptr inbounds (%PtrType.0, %PtrType.0* @type...1command_line_arguments.DefaultLogger, i32 0, i32 0) }, %IPST.3 { %structField.0* getelementptr inbounds ([1 x %structField.0], [1 x %structField.0]* @go..C47, i32 0, i32 0), i64 0, i64 0 } }
@const.15 = private constant [46 x i8] c"\09command_line_arguments\09logging.DefaultLogger\00", align 1
@go..C34 = internal constant { i8*, i64 } { i8* getelementptr inbounds ([46 x i8], [46 x i8]* @const.15, i32 0, i32 0), i64 45 }
@const.16 = private constant [14 x i8] c"DefaultLogger\00", align 1
@go..C35 = internal constant { i8*, i64 } { i8* getelementptr inbounds ([14 x i8], [14 x i8]* @const.16, i32 0, i32 0), i64 13 }
@go..C36 = internal constant { i8*, i64 } { i8* getelementptr inbounds ([23 x i8], [23 x i8]* @const.11, i32 0, i32 0), i64 22 }
@go..C37 = internal global [1 x %method.0] zeroinitializer
@go..C38 = internal constant %uncommonType.0 { { i8*, i64 }* @go..C35, { i8*, i64 }* @go..C36, %IPST.1 { %method.0* getelementptr inbounds ([1 x %method.0], [1 x %method.0]* @go..C37, i32 0, i32 0), i64 0, i64 0 } }
@type...1command_line_arguments.DefaultLogger = weak constant %PtrType.0 { %_type.0 { i64 8, i64 8, i32 946705145, i8 54, i8 8, i8 8, %__go_descriptor.0* bitcast (%functionDescriptor.0* @runtime.memhash64..f to %__go_descriptor.0*), %__go_descriptor.1* bitcast (%functionDescriptor.0* @runtime.memequal64..f to %__go_descriptor.1*), i8* getelementptr inbounds ([1 x i8], [1 x i8]* @gcbits..ba, i32 0, i32 0), { i8*, i64 }* @go..C39, %uncommonType.0* @go..C45, %_type.0* getelementptr inbounds (%PtrType.0, %PtrType.0* @type...1.1command_line_arguments.DefaultLogger, i32 0, i32 0) }, %_type.0* getelementptr inbounds (%StructType.0, %StructType.0* @command_line_arguments.DefaultLogger..d, i32 0, i32 0) }, comdat
@const.17 = private constant [47 x i8] c"*\09command_line_arguments\09logging.DefaultLogger\00", align 1
@go..C39 = internal constant { i8*, i64 } { i8* getelementptr inbounds ([47 x i8], [47 x i8]* @const.17, i32 0, i32 0), i64 46 }
@go..C40 = internal constant { i8*, i64 } { i8* getelementptr inbounds ([7 x i8], [7 x i8]* @const.1, i32 0, i32 0), i64 6 }
@type..func.8.1command_line_arguments.DefaultLogger.3string.3.6.7interface.4.5.9.8.9 = weak constant %FuncType.0 { %_type.0 { i64 8, i64 8, i32 1145836712, i8 19, i8 8, i8 8, %__go_descriptor.0* null, %__go_descriptor.1* null, i8* getelementptr inbounds ([1 x i8], [1 x i8]* @gcbits..ba, i32 0, i32 0), { i8*, i64 }* @go..C41, %uncommonType.0* null, %_type.0* null }, i8 0, %IPST.2 { %_type.0** getelementptr inbounds ([3 x %_type.0*], [3 x %_type.0*]* @go..C42, i32 0, i32 0), i64 3, i64 3 }, %IPST.2 { %_type.0** getelementptr inbounds ([1 x %_type.0*], [1 x %_type.0*]* @go..C43, i32 0, i32 0), i64 0, i64 0 } }, comdat
@const.18 = private constant [77 x i8] c"func(*\09command_line_arguments\09logging.DefaultLogger, string, []interface {})\00", align 1
@go..C41 = internal constant { i8*, i64 } { i8* getelementptr inbounds ([77 x i8], [77 x i8]* @const.18, i32 0, i32 0), i64 76 }
@go..C42 = internal global [3 x %_type.0*] [%_type.0* getelementptr inbounds (%PtrType.0, %PtrType.0* @type...1command_line_arguments.DefaultLogger, i32 0, i32 0), %_type.0* @string..d, %_type.0* getelementptr inbounds (%SliceType.0, %SliceType.0* @type...6.7interface.4.5, i32 0, i32 0)]
@go..C43 = internal global [1 x %_type.0*] zeroinitializer
@go..C44 = internal global [1 x %method.0] [%method.0 { { i8*, i64 }* @go..C40, { i8*, i64 }* null, %_type.0* getelementptr inbounds (%FuncType.0, %FuncType.0* @type..func.8string.3.3.3.3.6.7interface.4.5.9.8.9, i32 0, i32 0), %_type.0* getelementptr inbounds (%FuncType.0, %FuncType.0* @type..func.8.1command_line_arguments.DefaultLogger.3string.3.6.7interface.4.5.9.8.9, i32 0, i32 0), i8* bitcast (void (i8*, %DefaultLogger.0*, i64, i64, %IPST.0*)* @command_line_arguments.DefaultLogger.Printf to i8*) }]
@go..C45 = internal constant %uncommonType.0 { { i8*, i64 }* null, { i8*, i64 }* null, %IPST.1 { %method.0* getelementptr inbounds ([1 x %method.0], [1 x %method.0]* @go..C44, i32 0, i32 0), i64 1, i64 1 } }
@type...1.1command_line_arguments.DefaultLogger = weak constant %PtrType.0 { %_type.0 { i64 8, i64 8, i32 -2032586855, i8 54, i8 8, i8 8, %__go_descriptor.0* bitcast (%functionDescriptor.0* @runtime.memhash64..f to %__go_descriptor.0*), %__go_descriptor.1* bitcast (%functionDescriptor.0* @runtime.memequal64..f to %__go_descriptor.1*), i8* getelementptr inbounds ([1 x i8], [1 x i8]* @gcbits..ba, i32 0, i32 0), { i8*, i64 }* @go..C46, %uncommonType.0* null, %_type.0* null }, %_type.0* getelementptr inbounds (%PtrType.0, %PtrType.0* @type...1command_line_arguments.DefaultLogger, i32 0, i32 0) }, comdat
@const.19 = private constant [48 x i8] c"**\09command_line_arguments\09logging.DefaultLogger\00", align 1
@go..C46 = internal constant { i8*, i64 } { i8* getelementptr inbounds ([48 x i8], [48 x i8]* @const.19, i32 0, i32 0), i64 47 }
@go..C47 = internal global [1 x %structField.0] zeroinitializer
@gcbits..ha = weak constant [1 x i8] c"\07", comdat
@gcbits..Ga = weak constant [1 x i8] c"\1F", comdat
@go..C0 = internal global { i8*, i64, [7 x { i8*, i64, i64, i8* }] } { i8* null, i64 7, [7 x { i8*, i64, i64, i8* }] [{ i8*, i64, i64, i8* } { i8* bitcast (%.command-line-arguments.logger.0* @command_line_arguments.Logger to i8*), i64 16, i64 16, i8* getelementptr inbounds ([1 x i8], [1 x i8]* @gcbits..da, i32 0, i32 0) }, { i8*, i64, i64, i8* } { i8* bitcast ([2 x %_type.0*]* @go..C12 to i8*), i64 16, i64 16, i8* getelementptr inbounds ([1 x i8], [1 x i8]* @gcbits..da, i32 0, i32 0) }, { i8*, i64, i64, i8* } { i8* bitcast ([3 x %_type.0*]* @go..C15 to i8*), i64 24, i64 24, i8* getelementptr inbounds ([1 x i8], [1 x i8]* @gcbits..ha, i32 0, i32 0) }, { i8*, i64, i64, i8* } { i8* bitcast ([1 x %method.0]* @go..C17 to i8*), i64 40, i64 40, i8* getelementptr inbounds ([1 x i8], [1 x i8]* @gcbits..Ga, i32 0, i32 0) }, { i8*, i64, i64, i8* } { i8* bitcast ([1 x %imethod.0]* @go..C33 to i8*), i64 24, i64 24, i8* getelementptr inbounds ([1 x i8], [1 x i8]* @gcbits..ha, i32 0, i32 0) }, { i8*, i64, i64, i8* } { i8* bitcast ([3 x %_type.0*]* @go..C42 to i8*), i64 24, i64 24, i8* getelementptr inbounds ([1 x i8], [1 x i8]* @gcbits..ha, i32 0, i32 0) }, { i8*, i64, i64, i8* } { i8* bitcast ([1 x %method.0]* @go..C44 to i8*), i64 40, i64 40, i8* getelementptr inbounds ([1 x i8], [1 x i8]* @gcbits..Ga, i32 0, i32 0) }] }

define void @command_line_arguments.command_line_arguments..init0(i8* nest nocapture readnone %nest.0) #0 !dbg !91 {
entry:
  %tmpv.2 = alloca %.command-line-arguments.logger.0, align 8
  %command_line_arguments.Logger.field.ld.0 = load { %_type.0*, void (i8*, i8*, i64, i64, %IPST.0*)* }*, { %_type.0*, void (i8*, i8*, i64, i64, %IPST.0*)* }** getelementptr inbounds (%.command-line-arguments.logger.0, %.command-line-arguments.logger.0* @command_line_arguments.Logger, i64 0, i32 0), align 8, !dbg !94
  %icmp.2 = icmp eq { %_type.0*, void (i8*, i8*, i64, i64, %IPST.0*)* }* %command_line_arguments.Logger.field.ld.0, null, !dbg !94
  br i1 %icmp.2, label %then.0, label %fallthrough.0

then.0:                                           ; preds = %entry
  %call.0 = call i8* @runtime.newobject(i8* nest undef, %_type.0* getelementptr inbounds (%StructType.0, %StructType.0* @command_line_arguments.NullLogger..d, i64 0, i32 0)), !dbg !95
  %field.0 = getelementptr inbounds %.command-line-arguments.logger.0, %.command-line-arguments.logger.0* %tmpv.2, i64 0, i32 0, !dbg !96
  store { %_type.0*, void (i8*, i8*, i64, i64, %IPST.0*)* }* bitcast ({ %_type.0*, void (i8*, %NullLogger.0*, i64, i64, %IPST.0*)* }* @pimt..interface.4Printf.0func.8string.3.3.3.3.6.7interface.4.5.9.8.9.5..command_line_arguments.NullLogger to { %_type.0*, void (i8*, i8*, i64, i64, %IPST.0*)* }*), { %_type.0*, void (i8*, i8*, i64, i64, %IPST.0*)* }** %field.0, align 8, !dbg !96
  %field.1 = getelementptr inbounds %.command-line-arguments.logger.0, %.command-line-arguments.logger.0* %tmpv.2, i64 0, i32 1, !dbg !96
  store i8* %call.0, i8** %field.1, align 8, !dbg !96
  %runtime.writeBarrier.ld.0 = load i32, i32* @runtime.writeBarrier, align 4, !dbg !96
  %icmp.1 = icmp eq i32 %runtime.writeBarrier.ld.0, 0, !dbg !96
  %cast.26 = bitcast %.command-line-arguments.logger.0* %tmpv.2 to i8*, !dbg !96
  br i1 %icmp.1, label %else.2, label %else.1

fallthrough.0:                                    ; preds = %else.2, %else.1, %entry
  ret void

else.1:                                           ; preds = %then.0
  call void @runtime.typedmemmove(i8* nest undef, %_type.0* getelementptr inbounds (%InterfaceType.0, %InterfaceType.0* @command_line_arguments..command_line_arguments.logger..d, i64 0, i32 0), i8* bitcast (%.command-line-arguments.logger.0* @command_line_arguments.Logger to i8*), i8* nonnull %cast.26), !dbg !96
  br label %fallthrough.0

else.2:                                           ; preds = %then.0
  call void @llvm.memcpy.p0i8.p0i8.i64(i8* align 8 bitcast (%.command-line-arguments.logger.0* @command_line_arguments.Logger to i8*), i8* nonnull align 8 %cast.26, i64 16, i1 false), !dbg !96
  br label %fallthrough.0
}

; Function Attrs: nounwind readnone
define void @command_line_arguments.NullLogger.Printf(i8* nest nocapture %nest.2, %NullLogger.0* nocapture %l, i64 %format.chunk0, i64 %format.chunk1, %IPST.0* byval nocapture %a) #1 {
entry:
  ret void
}

declare i8* @runtime.newobject(i8*, %_type.0*) local_unnamed_addr #0

; Function Attrs: argmemonly nounwind
declare void @llvm.memcpy.p0i8.p0i8.i64(i8* nocapture writeonly, i8* nocapture readonly, i64, i1) #2

declare void @runtime.typedmemmove(i8*, %_type.0*, i8*, i8*) local_unnamed_addr #0

define void @command_line_arguments.SetLogger(i8* nest nocapture readnone %nest.1, i64 %l.chunk0, i64 %l.chunk1) #0 !dbg !97 {
entry:
  %l.addr = alloca %.command-line-arguments.logger.0, align 8
  %field0.0 = bitcast %.command-line-arguments.logger.0* %l.addr to i64*
  store i64 %l.chunk0, i64* %field0.0, align 8
  %field0.01 = getelementptr inbounds %.command-line-arguments.logger.0, %.command-line-arguments.logger.0* %l.addr, i64 0, i32 1
  %0 = bitcast i8** %field0.01 to i64*
  store i64 %l.chunk1, i64* %0, align 8
  %runtime.writeBarrier.ld.1 = load i32, i32* @runtime.writeBarrier, align 4, !dbg !100
  %icmp.4 = icmp eq i32 %runtime.writeBarrier.ld.1, 0, !dbg !100
  %cast.38 = bitcast %.command-line-arguments.logger.0* %l.addr to i8*, !dbg !100
  br i1 %icmp.4, label %else.4, label %else.3

fallthrough.3:                                    ; preds = %else.3, %else.4
  ret void

else.3:                                           ; preds = %entry
  call void @runtime.typedmemmove(i8* nest undef, %_type.0* getelementptr inbounds (%InterfaceType.0, %InterfaceType.0* @command_line_arguments..command_line_arguments.logger..d, i64 0, i32 0), i8* bitcast (%.command-line-arguments.logger.0* @command_line_arguments.Logger to i8*), i8* nonnull %cast.38), !dbg !100
  br label %fallthrough.3

else.4:                                           ; preds = %entry
  call void @llvm.memcpy.p0i8.p0i8.i64(i8* align 8 bitcast (%.command-line-arguments.logger.0* @command_line_arguments.Logger to i8*), i8* nonnull align 8 %cast.38, i64 16, i1 false), !dbg !100
  br label %fallthrough.3
}

; Function Attrs: nounwind readnone speculatable
declare void @llvm.dbg.declare(metadata, metadata, metadata) #3

define void @command_line_arguments.DefaultLogger.Printf(i8* nest nocapture readnone %nest.3, %DefaultLogger.0* nocapture readnone %l, i64 %format.chunk0, i64 %format.chunk1, %IPST.0* byval %a) #0 !dbg !101 {
entry:
  call void @llvm.dbg.declare(metadata %IPST.0* %a, metadata !106, metadata !DIExpression()), !dbg !107
  %sret.actual.0 = alloca { i64, %error.0 }, align 8
  call void @llvm.dbg.value(metadata %DefaultLogger.0* %l, metadata !108, metadata !DIExpression()), !dbg !109
  call void @llvm.dbg.value(metadata i64 %format.chunk0, metadata !110, metadata !DIExpression(DW_OP_LLVM_fragment, 0, 64)), !dbg !111
  call void @llvm.dbg.value(metadata i64 %format.chunk1, metadata !110, metadata !DIExpression(DW_OP_LLVM_fragment, 64, 64)), !dbg !111
  call void @fmt.Printf({ i64, %error.0 }* nonnull sret %sret.actual.0, i8* nest undef, i64 %format.chunk0, i64 %format.chunk1, %IPST.0* byval nonnull %a), !dbg !112
  ret void
}

declare void @fmt.Printf({ i64, %error.0 }*, i8*, i64, i64, %IPST.0*) local_unnamed_addr #0

declare void @runtime.registerGCRoots(i8*, i8*) local_unnamed_addr #0

define void @command_line_arguments..import(i8* nest nocapture readnone %nest.4) local_unnamed_addr #0 !dbg !113 {
entry:
  call void @runtime.registerGCRoots(i8* nest undef, i8* bitcast ({ i8*, i64, [7 x { i8*, i64, i64, i8* }] }* @go..C0 to i8*)), !dbg !114
  call void @command_line_arguments.command_line_arguments..init0(i8* nest undef), !dbg !116
  ret void
}

; Function Attrs: nounwind readnone speculatable
declare void @llvm.dbg.value(metadata, metadata, metadata) #3

attributes #0 = { "disable-tail-calls"="true" "no-frame-pointer-elim"="false" "split-stack" "target-cpu"="x86-64" "target-features"="+fxsr,+mmx,+sse,+sse2,+x87" }
attributes #1 = { nounwind readnone "disable-tail-calls"="true" "no-frame-pointer-elim"="false" "split-stack" "target-cpu"="x86-64" "target-features"="+fxsr,+mmx,+sse,+sse2,+x87" }
attributes #2 = { argmemonly nounwind }
attributes #3 = { nounwind readnone speculatable }

!llvm.module.flags = !{!0}
!llvm.dbg.cu = !{!1}

!0 = !{i32 7, !"PIC Level", i32 0}
!1 = distinct !DICompileUnit(language: DW_LANG_Go, file: !2, producer: "llvm-goc", isOptimized: true, runtimeVersion: 0, emissionKind: FullDebug, enums: !3, globals: !4)
!2 = !DIFile(filename: "./logging.go", directory: "/home/wangcong/go_path/src/github.com/ChrisRx/dungeonfs/pkg/logging")
!3 = !{}
!4 = !{!5, !89}
!5 = !DIGlobalVariableExpression(var: !6, expr: !DIExpression())
!6 = distinct !DIGlobalVariable(name: "command_line_arguments.Logger", linkageName: "command_line_arguments.Logger", scope: !1, file: !7, line: 7, type: !8, isLocal: false, isDefinition: true)
!7 = !DIFile(filename: "logging.go", directory: ".")
!8 = !DICompositeType(tag: DW_TAG_structure_type, name: ".command-line-arguments.logger", file: !7, line: 19, size: 128, align: 8, elements: !9)
!9 = !{!10, !88}
!10 = !DIDerivedType(tag: DW_TAG_member, name: "__methods", file: !7, line: 19, baseType: !11, size: 64, align: 64)
!11 = !DIDerivedType(tag: DW_TAG_pointer_type, baseType: !12, size: 64)
!12 = !DICompositeType(tag: DW_TAG_structure_type, name: "struct{*_type,*func(*void,string,struct{*struct{*_type,*void},int,int})void}", file: !13, size: 128, align: 8, elements: !14)
!13 = !DIFile(filename: "", directory: "")
!14 = !{!15, !76}
!15 = !DIDerivedType(tag: DW_TAG_member, name: "__type_descriptor", file: !13, line: 19, baseType: !16, size: 64, align: 64)
!16 = !DIDerivedType(tag: DW_TAG_pointer_type, baseType: !17, size: 64)
!17 = !DICompositeType(tag: DW_TAG_structure_type, name: "_type", file: !18, line: 1, size: 576, align: 8, elements: !19)
!18 = !DIFile(filename: "<built-in>", directory: "")
!19 = !{!20, !22, !23, !25, !27, !28, !29, !39, !48, !50, !57, !75}
!20 = !DIDerivedType(tag: DW_TAG_member, name: "size", file: !18, line: 1, baseType: !21, size: 64, align: 64)
!21 = !DIBasicType(name: "uintptr", size: 64, encoding: DW_ATE_unsigned)
!22 = !DIDerivedType(tag: DW_TAG_member, name: "ptrdata", file: !18, line: 1, baseType: !21, size: 64, align: 64, offset: 64)
!23 = !DIDerivedType(tag: DW_TAG_member, name: "hash", file: !18, line: 1, baseType: !24, size: 32, align: 32, offset: 128)
!24 = !DIBasicType(name: "uint32", size: 32, encoding: DW_ATE_unsigned)
!25 = !DIDerivedType(tag: DW_TAG_member, name: "kind", file: !18, line: 1, baseType: !26, size: 8, align: 8, offset: 160)
!26 = !DIBasicType(name: "uint8", size: 8, encoding: DW_ATE_unsigned)
!27 = !DIDerivedType(tag: DW_TAG_member, name: "align", file: !18, line: 1, baseType: !26, size: 8, align: 8, offset: 168)
!28 = !DIDerivedType(tag: DW_TAG_member, name: "fieldAlign", file: !18, line: 1, baseType: !26, size: 8, align: 8, offset: 176)
!29 = !DIDerivedType(tag: DW_TAG_member, name: "hashfn", file: !18, line: 1, baseType: !30, size: 64, align: 64, offset: 192)
!30 = !DIDerivedType(tag: DW_TAG_pointer_type, baseType: !31, size: 64)
!31 = !DICompositeType(tag: DW_TAG_structure_type, name: "__go_descriptor", file: !18, line: 1, size: 64, align: 8, elements: !32)
!32 = !{!33}
!33 = !DIDerivedType(tag: DW_TAG_member, name: "code", file: !18, line: 1, baseType: !34, size: 64, align: 64)
!34 = !DIDerivedType(tag: DW_TAG_pointer_type, baseType: !35, size: 64)
!35 = !DISubroutineType(types: !36)
!36 = !{!21, !37, !21}
!37 = !DIDerivedType(tag: DW_TAG_pointer_type, baseType: !38, size: 64)
!38 = !DIBasicType(name: "void")
!39 = !DIDerivedType(tag: DW_TAG_member, name: "equalfn", file: !18, line: 1, baseType: !40, size: 64, align: 64, offset: 256)
!40 = !DIDerivedType(tag: DW_TAG_pointer_type, baseType: !41, size: 64)
!41 = !DICompositeType(tag: DW_TAG_structure_type, name: "__go_descriptor", file: !18, line: 1, size: 64, align: 8, elements: !42)
!42 = !{!43}
!43 = !DIDerivedType(tag: DW_TAG_member, name: "code", file: !18, line: 1, baseType: !44, size: 64, align: 64)
!44 = !DIDerivedType(tag: DW_TAG_pointer_type, baseType: !45, size: 64)
!45 = !DISubroutineType(types: !46)
!46 = !{!47, !37, !37}
!47 = !DIBasicType(name: "bool", size: 8, encoding: DW_ATE_unsigned)
!48 = !DIDerivedType(tag: DW_TAG_member, name: "gcdata", file: !18, line: 1, baseType: !49, size: 64, align: 64, offset: 320)
!49 = !DIDerivedType(tag: DW_TAG_pointer_type, baseType: !26, size: 64)
!50 = !DIDerivedType(tag: DW_TAG_member, name: "string", file: !18, line: 1, baseType: !51, size: 64, align: 64, offset: 384)
!51 = !DIDerivedType(tag: DW_TAG_pointer_type, baseType: !52, size: 64)
!52 = !DICompositeType(tag: DW_TAG_structure_type, name: "string", file: !18, line: 1, size: 128, align: 8, elements: !53)
!53 = !{!54, !55}
!54 = !DIDerivedType(tag: DW_TAG_member, name: "__data", file: !18, line: 1, baseType: !49, size: 64, align: 64)
!55 = !DIDerivedType(tag: DW_TAG_member, name: "__length", file: !18, line: 1, baseType: !56, size: 64, align: 64, offset: 64)
!56 = !DIBasicType(name: "int", size: 64, encoding: DW_ATE_signed)
!57 = !DIDerivedType(tag: DW_TAG_member, name: "uncommonType", file: !18, line: 1, baseType: !58, size: 64, align: 64, offset: 448)
!58 = !DIDerivedType(tag: DW_TAG_pointer_type, baseType: !59, size: 64)
!59 = !DICompositeType(tag: DW_TAG_structure_type, name: "uncommonType", file: !18, line: 1, size: 320, align: 8, elements: !60)
!60 = !{!61, !62, !63}
!61 = !DIDerivedType(tag: DW_TAG_member, name: "name", file: !18, line: 1, baseType: !51, size: 64, align: 64)
!62 = !DIDerivedType(tag: DW_TAG_member, name: "pkgPath", file: !18, line: 1, baseType: !51, size: 64, align: 64, offset: 64)
!63 = !DIDerivedType(tag: DW_TAG_member, name: "methods", file: !18, line: 1, baseType: !64, size: 192, align: 64, offset: 128)
!64 = !DICompositeType(tag: DW_TAG_structure_type, name: "struct{*method,int,int}", file: !13, size: 192, align: 8, elements: !65)
!65 = !{!66, !73, !74}
!66 = !DIDerivedType(tag: DW_TAG_member, name: "__values", file: !13, line: 1, baseType: !67, size: 64, align: 64)
!67 = !DIDerivedType(tag: DW_TAG_pointer_type, baseType: !68, size: 64)
!68 = !DICompositeType(tag: DW_TAG_structure_type, name: "method", file: !18, line: 1, size: 320, align: 8, elements: !69)
!69 = !{!61, !62, !70, !71, !72}
!70 = !DIDerivedType(tag: DW_TAG_member, name: "mtyp", file: !18, line: 1, baseType: !37, size: 64, align: 64, offset: 128)
!71 = !DIDerivedType(tag: DW_TAG_member, name: "typ", file: !18, line: 1, baseType: !37, size: 64, align: 64, offset: 192)
!72 = !DIDerivedType(tag: DW_TAG_member, name: "tfn", file: !18, line: 1, baseType: !37, size: 64, align: 64, offset: 256)
!73 = !DIDerivedType(tag: DW_TAG_member, name: "__count", file: !13, line: 1, baseType: !56, size: 64, align: 64, offset: 64)
!74 = !DIDerivedType(tag: DW_TAG_member, name: "__capacity", file: !13, line: 1, baseType: !56, size: 64, align: 64, offset: 128)
!75 = !DIDerivedType(tag: DW_TAG_member, name: "ptrToThis", file: !18, line: 1, baseType: !37, size: 64, align: 64, offset: 512)
!76 = !DIDerivedType(tag: DW_TAG_member, name: "Printf", file: !13, line: 19, baseType: !77, size: 64, align: 64, offset: 64)
!77 = !DIDerivedType(tag: DW_TAG_pointer_type, baseType: !78, size: 64)
!78 = !DISubroutineType(types: !79)
!79 = !{!38, !37, !52, !80}
!80 = !DICompositeType(tag: DW_TAG_structure_type, name: "struct{*struct{*_type,*void},int,int}", file: !13, size: 192, align: 8, elements: !81)
!81 = !{!82, !73, !74}
!82 = !DIDerivedType(tag: DW_TAG_member, name: "__values", file: !13, line: 1, baseType: !83, size: 64, align: 64)
!83 = !DIDerivedType(tag: DW_TAG_pointer_type, baseType: !84, size: 64)
!84 = !DICompositeType(tag: DW_TAG_structure_type, name: "struct{*_type,*void}", file: !13, size: 128, align: 8, elements: !85)
!85 = !{!86, !87}
!86 = !DIDerivedType(tag: DW_TAG_member, name: "__type_descriptor", file: !13, line: 1, baseType: !16, size: 64, align: 64)
!87 = !DIDerivedType(tag: DW_TAG_member, name: "__object", file: !13, line: 1, baseType: !37, size: 64, align: 64, offset: 64)
!88 = !DIDerivedType(tag: DW_TAG_member, name: "__object", file: !7, line: 1, baseType: !37, size: 64, align: 64, offset: 64)
!89 = !DIGlobalVariableExpression(var: !90, expr: !DIExpression())
!90 = distinct !DIGlobalVariable(name: "runtime.writeBarrier", linkageName: "runtime.writeBarrier", scope: !1, file: !18, line: 1, type: !24, isLocal: false, isDefinition: true)
!91 = distinct !DISubprogram(name: "logging.command_line_arguments..init0", linkageName: "command_line_arguments.command_line_arguments..init0", scope: null, file: !7, line: 9, type: !92, isLocal: false, isDefinition: true, scopeLine: 9, isOptimized: false, unit: !1, retainedNodes: !3)
!92 = !DISubroutineType(types: !93)
!93 = !{!38}
!94 = !DILocation(line: 10, column: 12, scope: !91)
!95 = !DILocation(line: 11, column: 12, scope: !91)
!96 = !DILocation(line: 11, column: 10, scope: !91)
!97 = distinct !DISubprogram(name: "logging.SetLogger", linkageName: "command_line_arguments.SetLogger", scope: null, file: !7, line: 15, type: !98, isLocal: false, isDefinition: true, scopeLine: 15, isOptimized: false, unit: !1, retainedNodes: !3)
!98 = !DISubroutineType(types: !99)
!99 = !{!38, !8}
!100 = !DILocation(line: 16, column: 9, scope: !97)
!101 = distinct !DISubprogram(name: "logging.Printf..1command_line_arguments.DefaultLogger", linkageName: "command_line_arguments.DefaultLogger.Printf", scope: null, file: !7, line: 30, type: !102, isLocal: false, isDefinition: true, scopeLine: 30, isOptimized: false, unit: !1, retainedNodes: !3)
!102 = !DISubroutineType(types: !103)
!103 = !{!38, !104, !104, !52, !80}
!104 = !DIDerivedType(tag: DW_TAG_pointer_type, baseType: !105, size: 64)
!105 = !DICompositeType(tag: DW_TAG_structure_type, name: "DefaultLogger", file: !7, line: 28, align: 8, elements: !3)
!106 = !DILocalVariable(name: "a", arg: 3, scope: !101, file: !7, line: 30, type: !80)
!107 = !DILocation(line: 30, column: 47, scope: !101)
!108 = !DILocalVariable(name: "l", arg: 1, scope: !101, file: !7, line: 30, type: !104)
!109 = !DILocation(line: 30, column: 1, scope: !101)
!110 = !DILocalVariable(name: "format", arg: 2, scope: !101, file: !7, line: 30, type: !52)
!111 = !DILocation(line: 30, column: 32, scope: !101)
!112 = !DILocation(line: 31, column: 6, scope: !101)
!113 = distinct !DISubprogram(name: "logging.command_line_arguments..import", linkageName: "command_line_arguments..import", scope: null, file: !7, line: 1, type: !92, isLocal: false, isDefinition: true, scopeLine: 1, isOptimized: false, unit: !1, retainedNodes: !3)
!114 = !DILocation(line: 1, column: 1, scope: !115)
!115 = !DILexicalBlockFile(scope: !113, file: !18, discriminator: 0)
!116 = !DILocation(line: 9, column: 1, scope: !117)
!117 = !DILexicalBlockFile(scope: !113, file: !7, discriminator: 0)
	.text
	.file	"gomodule"

	.section ".go_export","e",@progbits
	.ascii "v2;\n"
	.ascii "package "
	.ascii "logging"
	.ascii ";\n"
	.ascii "pkgpath "
	.ascii "command-line-arguments"
	.ascii ";\n"
	.ascii "import "
	.ascii "fmt"
	.ascii " "
	.ascii "fmt"
	.ascii " \""
	.ascii "fmt"
	.ascii "\";\n"
	.ascii "init"
	.ascii " "
	.ascii "logging"
	.ascii " "
	.ascii "command_line_arguments..import"
	.ascii " "
	.ascii "fmt"
	.ascii " "
	.ascii "fmt..import"
	.ascii " "
	.ascii "poll"
	.ascii " "
	.ascii "internal_poll..import"
	.ascii " "
	.ascii "testlog"
	.ascii " "
	.ascii "internal_testlog..import"
	.ascii " "
	.ascii "io"
	.ascii " "
	.ascii "io..import"
	.ascii " "
	.ascii "os"
	.ascii " "
	.ascii "os..import"
	.ascii " "
	.ascii "reflect"
	.ascii " "
	.ascii "reflect..import"
	.ascii " "
	.ascii "runtime"
	.ascii " "
	.ascii "runtime..import"
	.ascii " "
	.ascii "sys"
	.ascii " "
	.ascii "runtime_internal_sys..import"
	.ascii " "
	.ascii "strconv"
	.ascii " "
	.ascii "strconv..import"
	.ascii " "
	.ascii "sync"
	.ascii " "
	.ascii "sync..import"
	.ascii " "
	.ascii "syscall"
	.ascii " "
	.ascii "syscall..import"
	.ascii " "
	.ascii "time"
	.ascii " "
	.ascii "time..import"
	.ascii " "
	.ascii "unicode"
	.ascii " "
	.ascii "unicode..import"
	.ascii ";\n"
	.ascii "init_graph"
	.ascii " "
	.ascii "0"
	.ascii " "
	.ascii "1"
	.ascii " "
	.ascii "0"
	.ascii " "
	.ascii "2"
	.ascii " "
	.ascii "0"
	.ascii " "
	.ascii "3"
	.ascii " "
	.ascii "0"
	.ascii " "
	.ascii "4"
	.ascii " "
	.ascii "0"
	.ascii " "
	.ascii "5"
	.ascii " "
	.ascii "0"
	.ascii " "
	.ascii "6"
	.ascii " "
	.ascii "0"
	.ascii " "
	.ascii "7"
	.ascii " "
	.ascii "0"
	.ascii " "
	.ascii "8"
	.ascii " "
	.ascii "0"
	.ascii " "
	.ascii "9"
	.ascii " "
	.ascii "0"
	.ascii " "
	.ascii "10"
	.ascii " "
	.ascii "0"
	.ascii " "
	.ascii "11"
	.ascii " "
	.ascii "0"
	.ascii " "
	.ascii "12"
	.ascii " "
	.ascii "0"
	.ascii " "
	.ascii "13"
	.ascii " "
	.ascii "1"
	.ascii " "
	.ascii "2"
	.ascii " "
	.ascii "1"
	.ascii " "
	.ascii "3"
	.ascii " "
	.ascii "1"
	.ascii " "
	.ascii "4"
	.ascii " "
	.ascii "1"
	.ascii " "
	.ascii "5"
	.ascii " "
	.ascii "1"
	.ascii " "
	.ascii "6"
	.ascii " "
	.ascii "1"
	.ascii " "
	.ascii "7"
	.ascii " "
	.ascii "1"
	.ascii " "
	.ascii "8"
	.ascii " "
	.ascii "1"
	.ascii " "
	.ascii "9"
	.ascii " "
	.ascii "1"
	.ascii " "
	.ascii "10"
	.ascii " "
	.ascii "1"
	.ascii " "
	.ascii "11"
	.ascii " "
	.ascii "1"
	.ascii " "
	.ascii "12"
	.ascii " "
	.ascii "1"
	.ascii " "
	.ascii "13"
	.ascii " "
	.ascii "2"
	.ascii " "
	.ascii "4"
	.ascii " "
	.ascii "2"
	.ascii " "
	.ascii "7"
	.ascii " "
	.ascii "2"
	.ascii " "
	.ascii "8"
	.ascii " "
	.ascii "2"
	.ascii " "
	.ascii "10"
	.ascii " "
	.ascii "2"
	.ascii " "
	.ascii "11"
	.ascii " "
	.ascii "2"
	.ascii " "
	.ascii "12"
	.ascii " "
	.ascii "4"
	.ascii " "
	.ascii "7"
	.ascii " "
	.ascii "4"
	.ascii " "
	.ascii "8"
	.ascii " "
	.ascii "4"
	.ascii " "
	.ascii "10"
	.ascii " "
	.ascii "5"
	.ascii " "
	.ascii "2"
	.ascii " "
	.ascii "5"
	.ascii " "
	.ascii "3"
	.ascii " "
	.ascii "5"
	.ascii " "
	.ascii "4"
	.ascii " "
	.ascii "5"
	.ascii " "
	.ascii "7"
	.ascii " "
	.ascii "5"
	.ascii " "
	.ascii "8"
	.ascii " "
	.ascii "5"
	.ascii " "
	.ascii "10"
	.ascii " "
	.ascii "5"
	.ascii " "
	.ascii "11"
	.ascii " "
	.ascii "5"
	.ascii " "
	.ascii "12"
	.ascii " "
	.ascii "6"
	.ascii " "
	.ascii "7"
	.ascii " "
	.ascii "6"
	.ascii " "
	.ascii "8"
	.ascii " "
	.ascii "6"
	.ascii " "
	.ascii "9"
	.ascii " "
	.ascii "6"
	.ascii " "
	.ascii "10"
	.ascii " "
	.ascii "6"
	.ascii " "
	.ascii "13"
	.ascii " "
	.ascii "7"
	.ascii " "
	.ascii "8"
	.ascii " "
	.ascii "9"
	.ascii " "
	.ascii "7"
	.ascii " "
	.ascii "9"
	.ascii " "
	.ascii "8"
	.ascii " "
	.ascii "10"
	.ascii " "
	.ascii "7"
	.ascii " "
	.ascii "10"
	.ascii " "
	.ascii "8"
	.ascii " "
	.ascii "11"
	.ascii " "
	.ascii "7"
	.ascii " "
	.ascii "11"
	.ascii " "
	.ascii "8"
	.ascii " "
	.ascii "11"
	.ascii " "
	.ascii "10"
	.ascii " "
	.ascii "12"
	.ascii " "
	.ascii "7"
	.ascii " "
	.ascii "12"
	.ascii " "
	.ascii "8"
	.ascii " "
	.ascii "12"
	.ascii " "
	.ascii "10"
	.ascii " "
	.ascii "12"
	.ascii " "
	.ascii "11"
	.ascii ";\n"
	.ascii "type "
	.ascii "<type 1 "
	.ascii "\"DefaultLogger\" "
	.ascii "<type 2 "
	.ascii "struct { "
	.ascii "}"
	.ascii ">"
	.ascii "\n"
	.ascii " "
	.ascii "func "
	.ascii "("
	.ascii "l"
	.ascii " "
	.ascii "<esc:0x1>"
	.ascii " "
	.ascii "<type 3 "
	.ascii "*"
	.ascii "<type 1>"
	.ascii ">"
	.ascii ") "
	.ascii "Printf"
	.ascii " ("
	.ascii "format"
	.ascii " "
	.ascii "<esc:0x1>"
	.ascii " "
	.ascii "<type -16>"
	.ascii ", "
	.ascii "a"
	.ascii " "
	.ascii "<esc:0x9>"
	.ascii " "
	.ascii "..."
	.ascii "<type 4 "
	.ascii "interface { "
	.ascii "}"
	.ascii ">"
	.ascii ")"
	.ascii ";\n"
	.ascii ">"
	.ascii ";\n"
	.ascii "var "
	.ascii "Logger"
	.ascii " "
	.ascii "<type 5 "
	.ascii "\".command-line-arguments.logger\" "
	.ascii "<type 6 "
	.ascii "interface { "
	.ascii "Printf"
	.ascii " ("
	.ascii "?"
	.ascii " "
	.ascii "<type -16>"
	.ascii ", "
	.ascii "?"
	.ascii " "
	.ascii "..."
	.ascii "<type 7 "
	.ascii "interface { "
	.ascii "}"
	.ascii ">"
	.ascii ")"
	.ascii "; "
	.ascii "}"
	.ascii ">"
	.ascii ">"
	.ascii ";\n"
	.ascii "type "
	.ascii "<type 8 "
	.ascii "\"NullLogger\" "
	.ascii "<type 9 "
	.ascii "struct { "
	.ascii "}"
	.ascii ">"
	.ascii "\n"
	.ascii " "
	.ascii "func "
	.ascii "("
	.ascii "l"
	.ascii " "
	.ascii "<esc:0x1>"
	.ascii " "
	.ascii "<type 10 "
	.ascii "*"
	.ascii "<type 8>"
	.ascii ">"
	.ascii ") "
	.ascii "Printf"
	.ascii " ("
	.ascii "format"
	.ascii " "
	.ascii "<esc:0x1>"
	.ascii " "
	.ascii "<type -16>"
	.ascii ", "
	.ascii "a"
	.ascii " "
	.ascii "<esc:0x1>"
	.ascii " "
	.ascii "..."
	.ascii "<type 11 "
	.ascii "interface { "
	.ascii "}"
	.ascii ">"
	.ascii ")"
	.ascii ";\n"
	.ascii ">"
	.ascii ";\n"
	.ascii "func "
	.ascii "SetLogger"
	.ascii " ("
	.ascii "l"
	.ascii " "
	.ascii "<type 5>"
	.ascii ")"
	.ascii ";\n"
	.ascii "func "
	.ascii "command_line_arguments..init0"
	.ascii " ("
	.ascii ")"
	.ascii ";\n"
	.ascii "checksum BFDDD1B576EDAA140520BDD92902A0205EA5C8F3;\n"
	.text


	.file	1 "<built-in>"
	.file	2 "<stdin>"
	.file	3 "./logging.go"
	.section	.text.command_line_arguments.command_line_arguments..init0,"ax",@progbits
	.globl	command_line_arguments.command_line_arguments..init0
	.p2align	4, 0x90
	.type	command_line_arguments.command_line_arguments..init0,@function
command_line_arguments.command_line_arguments..init0:
.Lfunc_begin0:
	.loc	3 9 0
	.cfi_startproc
	cmpq	%fs:112, %rsp
	ja	.LBB0_2
	movq	%r10, %rax
	movabsq	$24, %r10
	movabsq	$0, %r11
	callq	__morestack
	retq
	movq	%rax, %r10
.LBB0_2:
	subq	$24, %rsp
	.cfi_def_cfa_offset 32
.Ltmp0:
	.loc	3 10 12 prologue_end
	cmpq	$0, command_line_arguments.Logger(%rip)
	je	.LBB0_3
	.loc	3 0 12 is_stmt 0
	addq	$24, %rsp
	.cfi_def_cfa_offset 8
	retq
.LBB0_3:
	.cfi_def_cfa_offset 32
	.loc	3 11 12 is_stmt 1
	movl	$command_line_arguments.NullLogger..d, %edi
	callq	runtime.newobject
	.loc	3 11 10 is_stmt 0
	movq	$pimt..interface.4Printf.0func.8string.3.3.3.3.6.7interface.4.5.9.8.9.5..command_line_arguments.NullLogger, 8(%rsp)
	movq	%rax, 16(%rsp)
	cmpl	$0, runtime.writeBarrier(%rip)
	je	.LBB0_6
	.loc	3 0 10
	leaq	8(%rsp), %rdx
	.loc	3 11 10
	movl	$command_line_arguments..command_line_arguments.logger..d, %edi
	movl	$command_line_arguments.Logger, %esi
	callq	runtime.typedmemmove
	addq	$24, %rsp
	.cfi_def_cfa_offset 8
	retq
.LBB0_6:
	.cfi_def_cfa_offset 32
	movups	8(%rsp), %xmm0
	movups	%xmm0, command_line_arguments.Logger(%rip)
	addq	$24, %rsp
	.cfi_def_cfa_offset 8
	retq
.Ltmp1:
.Lfunc_end0:
	.size	command_line_arguments.command_line_arguments..init0, .Lfunc_end0-command_line_arguments.command_line_arguments..init0
	.cfi_endproc

	.section	.text.command_line_arguments.NullLogger.Printf,"ax",@progbits
	.globl	command_line_arguments.NullLogger.Printf
	.p2align	4, 0x90
	.type	command_line_arguments.NullLogger.Printf,@function
command_line_arguments.NullLogger.Printf:
.Lfunc_begin1:
	.cfi_startproc
	retq
.Lfunc_end1:
	.size	command_line_arguments.NullLogger.Printf, .Lfunc_end1-command_line_arguments.NullLogger.Printf
	.cfi_endproc

	.section	.text.command_line_arguments.SetLogger,"ax",@progbits
	.globl	command_line_arguments.SetLogger
	.p2align	4, 0x90
	.type	command_line_arguments.SetLogger,@function
command_line_arguments.SetLogger:
.Lfunc_begin2:
	.loc	3 15 0 is_stmt 1
	.cfi_startproc
	cmpq	%fs:112, %rsp
	ja	.LBB2_2
	movq	%r10, %rax
	movabsq	$24, %r10
	movabsq	$0, %r11
	callq	__morestack
	retq
	movq	%rax, %r10
.LBB2_2:
	subq	$24, %rsp
	.cfi_def_cfa_offset 32
	movq	%rdi, 8(%rsp)
	movq	%rsi, 16(%rsp)
.Ltmp2:
	.loc	3 16 9 prologue_end
	cmpl	$0, runtime.writeBarrier(%rip)
	je	.LBB2_5
	.loc	3 0 9 is_stmt 0
	leaq	8(%rsp), %rdx
	.loc	3 16 9
	movl	$command_line_arguments..command_line_arguments.logger..d, %edi
	movl	$command_line_arguments.Logger, %esi
	callq	runtime.typedmemmove
	addq	$24, %rsp
	.cfi_def_cfa_offset 8
	retq
.LBB2_5:
	.cfi_def_cfa_offset 32
	movups	8(%rsp), %xmm0
	movups	%xmm0, command_line_arguments.Logger(%rip)
	addq	$24, %rsp
	.cfi_def_cfa_offset 8
	retq
.Ltmp3:
.Lfunc_end2:
	.size	command_line_arguments.SetLogger, .Lfunc_end2-command_line_arguments.SetLogger
	.cfi_endproc

	.section	.text.command_line_arguments.DefaultLogger.Printf,"ax",@progbits
	.globl	command_line_arguments.DefaultLogger.Printf
	.p2align	4, 0x90
	.type	command_line_arguments.DefaultLogger.Printf,@function
command_line_arguments.DefaultLogger.Printf:
.Lfunc_begin3:
	.loc	3 30 0 is_stmt 1
	.cfi_startproc
	cmpq	%fs:112, %rsp
	ja	.LBB3_2
	movq	%r10, %rax
	movabsq	$56, %r10
	movabsq	$24, %r11
	callq	__morestack
	retq
	movq	%rax, %r10
.LBB3_2:
	subq	$56, %rsp
	.cfi_def_cfa_offset 64
.Ltmp4:
	.loc	3 31 6 prologue_end
	movq	80(%rsp), %rax
	movq	%rax, 16(%rsp)
	movaps	64(%rsp), %xmm0
	movups	%xmm0, (%rsp)
	leaq	32(%rsp), %rdi
.Ltmp5:
	callq	fmt.Printf
.Ltmp6:
	.loc	3 0 6 is_stmt 0
	addq	$56, %rsp
	.cfi_def_cfa_offset 8
	retq
.Ltmp7:
.Lfunc_end3:
	.size	command_line_arguments.DefaultLogger.Printf, .Lfunc_end3-command_line_arguments.DefaultLogger.Printf
	.cfi_endproc

	.section	.text.command_line_arguments..import,"ax",@progbits
	.globl	command_line_arguments..import
	.p2align	4, 0x90
	.type	command_line_arguments..import,@function
command_line_arguments..import:
.Lfunc_begin4:
	.loc	3 1 0 is_stmt 1
	.cfi_startproc
	cmpq	%fs:112, %rsp
	ja	.LBB4_2
	movq	%r10, %rax
	movabsq	$8, %r10
	movabsq	$0, %r11
	callq	__morestack
	retq
	movq	%rax, %r10
.LBB4_2:
	pushq	%rax
	.cfi_def_cfa_offset 16
.Ltmp8:
	.loc	1 1 1 prologue_end
	movl	$go..C0, %edi
	callq	runtime.registerGCRoots
	.loc	3 9 1
	callq	command_line_arguments.command_line_arguments..init0
	popq	%rax
	.cfi_def_cfa_offset 8
	retq
.Ltmp9:
.Lfunc_end4:
	.size	command_line_arguments..import, .Lfunc_end4-command_line_arguments..import
	.cfi_endproc

	.type	command_line_arguments.Logger,@object
	.section	.bss.command_line_arguments.Logger,"aw",@nobits
	.globl	command_line_arguments.Logger
	.p2align	3
command_line_arguments.Logger:
	.zero	16
	.size	command_line_arguments.Logger, 16

	.type	type...1command_line_arguments.NullLogger,@object
	.section	.rodata.type...1command_line_arguments.NullLogger,"aG",@progbits,type...1command_line_arguments.NullLogger,comdat
	.weak	type...1command_line_arguments.NullLogger
	.p2align	4
type...1command_line_arguments.NullLogger:
	.quad	8
	.quad	8
	.long	3999230457
	.byte	54
	.byte	8
	.byte	8
	.zero	1
	.quad	runtime.memhash64..f
	.quad	runtime.memequal64..f
	.quad	gcbits..ba
	.quad	go..C1
	.quad	go..C18
	.quad	type...1.1command_line_arguments.NullLogger
	.quad	command_line_arguments.NullLogger..d
	.size	type...1command_line_arguments.NullLogger, 80

	.type	gcbits..ba,@object
	.section	.rodata.gcbits..ba,"aG",@progbits,gcbits..ba,comdat
	.weak	gcbits..ba
gcbits..ba:
	.byte	1
	.size	gcbits..ba, 1

	.type	.Lconst.0,@object
	.section	.rodata..Lconst.0,"a",@progbits
.Lconst.0:
	.asciz	"*\tcommand_line_arguments\tlogging.NullLogger"
	.size	.Lconst.0, 44

	.type	go..C1,@object
	.section	.rodata.go..C1,"a",@progbits
	.p2align	3
go..C1:
	.quad	.Lconst.0
	.quad	43
	.size	go..C1, 16

	.type	.Lconst.1,@object
	.section	.rodata..Lconst.1,"a",@progbits
.Lconst.1:
	.asciz	"Printf"
	.size	.Lconst.1, 7

	.type	go..C2,@object
	.section	.rodata.go..C2,"a",@progbits
	.p2align	3
go..C2:
	.quad	.Lconst.1
	.quad	6
	.size	go..C2, 16

	.type	type..func.8string.3.3.3.3.6.7interface.4.5.9.8.9,@object
	.section	.rodata.type..func.8string.3.3.3.3.6.7interface.4.5.9.8.9,"aG",@progbits,type..func.8string.3.3.3.3.6.7interface.4.5.9.8.9,comdat
	.weak	type..func.8string.3.3.3.3.6.7interface.4.5.9.8.9
	.p2align	4
type..func.8string.3.3.3.3.6.7interface.4.5.9.8.9:
	.quad	8
	.quad	8
	.long	458021592
	.byte	19
	.byte	8
	.byte	8
	.zero	1
	.quad	0
	.quad	0
	.quad	gcbits..ba
	.quad	go..C3
	.quad	0
	.quad	0
	.byte	1
	.zero	7
	.quad	go..C12
	.quad	2
	.quad	2
	.quad	go..C13
	.quad	0
	.quad	0
	.size	type..func.8string.3.3.3.3.6.7interface.4.5.9.8.9, 128

	.type	.Lconst.2,@object
	.section	.rodata..Lconst.2,"a",@progbits
.Lconst.2:
	.asciz	"func(string, ...interface {})"
	.size	.Lconst.2, 30

	.type	go..C3,@object
	.section	.rodata.go..C3,"a",@progbits
	.p2align	3
go..C3:
	.quad	.Lconst.2
	.quad	29
	.size	go..C3, 16

	.type	string..d,@object
	.section	.rodata.string..d,"aG",@progbits,string..d,comdat
	.weak	string..d
	.p2align	4
string..d:
	.quad	16
	.quad	8
	.long	2296014490
	.byte	24
	.byte	8
	.byte	8
	.zero	1
	.quad	runtime.strhash..f
	.quad	runtime.strequal..f
	.quad	gcbits..ba
	.quad	go..C4
	.quad	go..C7
	.quad	type...1string
	.size	string..d, 72

	.type	.Lconst.3,@object
	.section	.rodata..Lconst.3,"a",@progbits
.Lconst.3:
	.asciz	"string"
	.size	.Lconst.3, 7

	.type	go..C4,@object
	.section	.rodata.go..C4,"a",@progbits
	.p2align	3
go..C4:
	.quad	.Lconst.3
	.quad	6
	.size	go..C4, 16

	.type	go..C5,@object
	.section	.rodata.go..C5,"a",@progbits
	.p2align	3
go..C5:
	.quad	.Lconst.3
	.quad	6
	.size	go..C5, 16

	.type	go..C6,@object
	.section	.bss.go..C6,"aw",@nobits
	.p2align	4
go..C6:
	.zero	40
	.size	go..C6, 40

	.type	go..C7,@object
	.section	.rodata.go..C7,"a",@progbits
	.p2align	4
go..C7:
	.quad	go..C5
	.quad	0
	.quad	go..C6
	.quad	0
	.quad	0
	.size	go..C7, 40

	.type	type...1string,@object
	.section	.rodata.type...1string,"aG",@progbits,type...1string,comdat
	.weak	type...1string
	.p2align	4
type...1string:
	.quad	8
	.quad	8
	.long	2376493481
	.byte	54
	.byte	8
	.byte	8
	.zero	1
	.quad	runtime.memhash64..f
	.quad	runtime.memequal64..f
	.quad	gcbits..ba
	.quad	go..C8
	.quad	0
	.quad	0
	.quad	string..d
	.size	type...1string, 80

	.type	.Lconst.4,@object
	.section	.rodata..Lconst.4,"a",@progbits
.Lconst.4:
	.asciz	"*string"
	.size	.Lconst.4, 8

	.type	go..C8,@object
	.section	.rodata.go..C8,"a",@progbits
	.p2align	3
go..C8:
	.quad	.Lconst.4
	.quad	7
	.size	go..C8, 16

	.type	type...6.7interface.4.5,@object
	.section	.rodata.type...6.7interface.4.5,"aG",@progbits,type...6.7interface.4.5,comdat
	.weak	type...6.7interface.4.5
	.p2align	4
type...6.7interface.4.5:
	.quad	24
	.quad	8
	.long	30
	.byte	23
	.byte	8
	.byte	8
	.zero	1
	.quad	0
	.quad	0
	.quad	gcbits..ba
	.quad	go..C9
	.quad	0
	.quad	0
	.quad	type..interface.4.5
	.size	type...6.7interface.4.5, 80

	.type	.Lconst.5,@object
	.section	.rodata..Lconst.5,"a",@progbits
.Lconst.5:
	.asciz	"[]interface {}"
	.size	.Lconst.5, 15

	.type	go..C9,@object
	.section	.rodata.go..C9,"a",@progbits
	.p2align	3
go..C9:
	.quad	.Lconst.5
	.quad	14
	.size	go..C9, 16

	.type	type..interface.4.5,@object
	.section	.rodata.type..interface.4.5,"aG",@progbits,type..interface.4.5,comdat
	.weak	type..interface.4.5
	.p2align	4
type..interface.4.5:
	.quad	16
	.quad	16
	.long	16
	.byte	20
	.byte	8
	.byte	8
	.zero	1
	.quad	runtime.nilinterhash..f
	.quad	runtime.nilinterequal..f
	.quad	gcbits..da
	.quad	go..C10
	.quad	0
	.quad	0
	.quad	go..C11
	.quad	0
	.quad	0
	.size	type..interface.4.5, 96

	.type	gcbits..da,@object
	.section	.rodata.gcbits..da,"aG",@progbits,gcbits..da,comdat
	.weak	gcbits..da
gcbits..da:
	.byte	3
	.size	gcbits..da, 1

	.type	.Lconst.6,@object
	.section	.rodata..Lconst.6,"a",@progbits
.Lconst.6:
	.asciz	"interface {}"
	.size	.Lconst.6, 13

	.type	go..C10,@object
	.section	.rodata.go..C10,"a",@progbits
	.p2align	3
go..C10:
	.quad	.Lconst.6
	.quad	12
	.size	go..C10, 16

	.type	go..C11,@object
	.section	.bss.go..C11,"aw",@nobits
	.p2align	4
go..C11:
	.zero	24
	.size	go..C11, 24

	.type	go..C12,@object
	.section	.data.go..C12,"aw",@progbits
	.p2align	3
go..C12:
	.quad	string..d
	.quad	type...6.7interface.4.5
	.size	go..C12, 16

	.type	go..C13,@object
	.section	.bss.go..C13,"aw",@nobits
	.p2align	3
go..C13:
	.zero	8
	.size	go..C13, 8

	.type	type..func.8.1command_line_arguments.NullLogger.3string.3.6.7interface.4.5.9.8.9,@object
	.section	.rodata.type..func.8.1command_line_arguments.NullLogger.3string.3.6.7interface.4.5.9.8.9,"aG",@progbits,type..func.8.1command_line_arguments.NullLogger.3string.3.6.7interface.4.5.9.8.9,comdat
	.weak	type..func.8.1command_line_arguments.NullLogger.3string.3.6.7interface.4.5.9.8.9
	.p2align	4
type..func.8.1command_line_arguments.NullLogger.3string.3.6.7interface.4.5.9.8.9:
	.quad	8
	.quad	8
	.long	42398888
	.byte	19
	.byte	8
	.byte	8
	.zero	1
	.quad	0
	.quad	0
	.quad	gcbits..ba
	.quad	go..C14
	.quad	0
	.quad	0
	.byte	0
	.zero	7
	.quad	go..C15
	.quad	3
	.quad	3
	.quad	go..C16
	.quad	0
	.quad	0
	.size	type..func.8.1command_line_arguments.NullLogger.3string.3.6.7interface.4.5.9.8.9, 128

	.type	.Lconst.7,@object
	.section	.rodata..Lconst.7,"a",@progbits
.Lconst.7:
	.asciz	"func(*\tcommand_line_arguments\tlogging.NullLogger, string, []interface {})"
	.size	.Lconst.7, 74

	.type	go..C14,@object
	.section	.rodata.go..C14,"a",@progbits
	.p2align	3
go..C14:
	.quad	.Lconst.7
	.quad	73
	.size	go..C14, 16

	.type	go..C15,@object
	.section	.data.go..C15,"aw",@progbits
	.p2align	4
go..C15:
	.quad	type...1command_line_arguments.NullLogger
	.quad	string..d
	.quad	type...6.7interface.4.5
	.size	go..C15, 24

	.type	go..C16,@object
	.section	.bss.go..C16,"aw",@nobits
	.p2align	3
go..C16:
	.zero	8
	.size	go..C16, 8

	.type	go..C17,@object
	.section	.data.go..C17,"aw",@progbits
	.p2align	4
go..C17:
	.quad	go..C2
	.quad	0
	.quad	type..func.8string.3.3.3.3.6.7interface.4.5.9.8.9
	.quad	type..func.8.1command_line_arguments.NullLogger.3string.3.6.7interface.4.5.9.8.9
	.quad	command_line_arguments.NullLogger.Printf
	.size	go..C17, 40

	.type	go..C18,@object
	.section	.rodata.go..C18,"a",@progbits
	.p2align	4
go..C18:
	.quad	0
	.quad	0
	.quad	go..C17
	.quad	1
	.quad	1
	.size	go..C18, 40

	.type	type...1.1command_line_arguments.NullLogger,@object
	.section	.rodata.type...1.1command_line_arguments.NullLogger,"aG",@progbits,type...1.1command_line_arguments.NullLogger,comdat
	.weak	type...1.1command_line_arguments.NullLogger
	.p2align	4
type...1.1command_line_arguments.NullLogger:
	.quad	8
	.quad	8
	.long	3858145177
	.byte	54
	.byte	8
	.byte	8
	.zero	1
	.quad	runtime.memhash64..f
	.quad	runtime.memequal64..f
	.quad	gcbits..ba
	.quad	go..C19
	.quad	0
	.quad	0
	.quad	type...1command_line_arguments.NullLogger
	.size	type...1.1command_line_arguments.NullLogger, 80

	.type	.Lconst.8,@object
	.section	.rodata..Lconst.8,"a",@progbits
.Lconst.8:
	.asciz	"**\tcommand_line_arguments\tlogging.NullLogger"
	.size	.Lconst.8, 45

	.type	go..C19,@object
	.section	.rodata.go..C19,"a",@progbits
	.p2align	3
go..C19:
	.quad	.Lconst.8
	.quad	44
	.size	go..C19, 16

	.type	command_line_arguments.NullLogger..d,@object
	.section	.rodata.command_line_arguments.NullLogger..d,"a",@progbits
	.globl	command_line_arguments.NullLogger..d
	.p2align	4
command_line_arguments.NullLogger..d:
	.quad	0
	.quad	0
	.long	2934306463
	.byte	153
	.byte	1
	.byte	1
	.zero	1
	.quad	runtime.memhash0..f
	.quad	runtime.memequal0..f
	.quad	0
	.quad	go..C20
	.quad	go..C24
	.quad	type...1command_line_arguments.NullLogger
	.quad	go..C25
	.quad	0
	.quad	0
	.size	command_line_arguments.NullLogger..d, 96

	.type	.Lconst.9,@object
	.section	.rodata..Lconst.9,"a",@progbits
.Lconst.9:
	.asciz	"\tcommand_line_arguments\tlogging.NullLogger"
	.size	.Lconst.9, 43

	.type	go..C20,@object
	.section	.rodata.go..C20,"a",@progbits
	.p2align	3
go..C20:
	.quad	.Lconst.9
	.quad	42
	.size	go..C20, 16

	.type	.Lconst.10,@object
	.section	.rodata..Lconst.10,"a",@progbits
.Lconst.10:
	.asciz	"NullLogger"
	.size	.Lconst.10, 11

	.type	go..C21,@object
	.section	.rodata.go..C21,"a",@progbits
	.p2align	3
go..C21:
	.quad	.Lconst.10
	.quad	10
	.size	go..C21, 16

	.type	.Lconst.11,@object
	.section	.rodata..Lconst.11,"a",@progbits
.Lconst.11:
	.asciz	"command-line-arguments"
	.size	.Lconst.11, 23

	.type	go..C22,@object
	.section	.rodata.go..C22,"a",@progbits
	.p2align	3
go..C22:
	.quad	.Lconst.11
	.quad	22
	.size	go..C22, 16

	.type	go..C23,@object
	.section	.bss.go..C23,"aw",@nobits
	.p2align	4
go..C23:
	.zero	40
	.size	go..C23, 40

	.type	go..C24,@object
	.section	.rodata.go..C24,"a",@progbits
	.p2align	4
go..C24:
	.quad	go..C21
	.quad	go..C22
	.quad	go..C23
	.quad	0
	.quad	0
	.size	go..C24, 40

	.type	go..C25,@object
	.section	.bss.go..C25,"aw",@nobits
	.p2align	4
go..C25:
	.zero	40
	.size	go..C25, 40

	.type	pimt..interface.4Printf.0func.8string.3.3.3.3.6.7interface.4.5.9.8.9.5..command_line_arguments.NullLogger,@object
	.section	.rodata.pimt..interface.4Printf.0func.8string.3.3.3.3.6.7interface.4.5.9.8.9.5..command_line_arguments.NullLogger,"aG",@progbits,pimt..interface.4Printf.0func.8string.3.3.3.3.6.7interface.4.5.9.8.9.5..command_line_arguments.NullLogger,comdat
	.weak	pimt..interface.4Printf.0func.8string.3.3.3.3.6.7interface.4.5.9.8.9.5..command_line_arguments.NullLogger
	.p2align	3
pimt..interface.4Printf.0func.8string.3.3.3.3.6.7interface.4.5.9.8.9.5..command_line_arguments.NullLogger:
	.quad	type...1command_line_arguments.NullLogger
	.quad	command_line_arguments.NullLogger.Printf
	.size	pimt..interface.4Printf.0func.8string.3.3.3.3.6.7interface.4.5.9.8.9.5..command_line_arguments.NullLogger, 16

	.type	command_line_arguments..command_line_arguments.logger..d,@object
	.section	.rodata.command_line_arguments..command_line_arguments.logger..d,"a",@progbits
	.globl	command_line_arguments..command_line_arguments.logger..d
	.p2align	4
command_line_arguments..command_line_arguments.logger..d:
	.quad	16
	.quad	16
	.long	3748037226
	.byte	20
	.byte	8
	.byte	8
	.zero	1
	.quad	runtime.interhash..f
	.quad	runtime.interequal..f
	.quad	gcbits..da
	.quad	go..C26
	.quad	go..C30
	.quad	type...1command_line_arguments.logger
	.quad	go..C33
	.quad	1
	.quad	1
	.size	command_line_arguments..command_line_arguments.logger..d, 96

	.type	.Lconst.12,@object
	.section	.rodata..Lconst.12,"a",@progbits
.Lconst.12:
	.asciz	"\tcommand_line_arguments\tlogging.logger"
	.size	.Lconst.12, 39

	.type	go..C26,@object
	.section	.rodata.go..C26,"a",@progbits
	.p2align	3
go..C26:
	.quad	.Lconst.12
	.quad	38
	.size	go..C26, 16

	.type	.Lconst.13,@object
	.section	.rodata..Lconst.13,"a",@progbits
.Lconst.13:
	.asciz	"logger"
	.size	.Lconst.13, 7

	.type	go..C27,@object
	.section	.rodata.go..C27,"a",@progbits
	.p2align	3
go..C27:
	.quad	.Lconst.13
	.quad	6
	.size	go..C27, 16

	.type	go..C28,@object
	.section	.rodata.go..C28,"a",@progbits
	.p2align	3
go..C28:
	.quad	.Lconst.11
	.quad	22
	.size	go..C28, 16

	.type	go..C29,@object
	.section	.bss.go..C29,"aw",@nobits
	.p2align	4
go..C29:
	.zero	40
	.size	go..C29, 40

	.type	go..C30,@object
	.section	.rodata.go..C30,"a",@progbits
	.p2align	4
go..C30:
	.quad	go..C27
	.quad	go..C28
	.quad	go..C29
	.quad	0
	.quad	0
	.size	go..C30, 40

	.type	type...1command_line_arguments.logger,@object
	.section	.rodata.type...1command_line_arguments.logger,"aG",@progbits,type...1command_line_arguments.logger,comdat
	.weak	type...1command_line_arguments.logger
	.p2align	4
type...1command_line_arguments.logger:
	.quad	8
	.quad	8
	.long	4134020777
	.byte	54
	.byte	8
	.byte	8
	.zero	1
	.quad	runtime.memhash64..f
	.quad	runtime.memequal64..f
	.quad	gcbits..ba
	.quad	go..C31
	.quad	0
	.quad	0
	.quad	command_line_arguments..command_line_arguments.logger..d
	.size	type...1command_line_arguments.logger, 80

	.type	.Lconst.14,@object
	.section	.rodata..Lconst.14,"a",@progbits
.Lconst.14:
	.asciz	"*\tcommand_line_arguments\tlogging.logger"
	.size	.Lconst.14, 40

	.type	go..C31,@object
	.section	.rodata.go..C31,"a",@progbits
	.p2align	3
go..C31:
	.quad	.Lconst.14
	.quad	39
	.size	go..C31, 16

	.type	go..C32,@object
	.section	.rodata.go..C32,"a",@progbits
	.p2align	3
go..C32:
	.quad	.Lconst.1
	.quad	6
	.size	go..C32, 16

	.type	go..C33,@object
	.section	.data.go..C33,"aw",@progbits
	.p2align	4
go..C33:
	.quad	go..C32
	.quad	0
	.quad	type..func.8string.3.3.3.3.6.7interface.4.5.9.8.9
	.size	go..C33, 24

	.type	command_line_arguments.command_line_arguments..init0..f,@object
	.section	.rodata.command_line_arguments.command_line_arguments..init0..f,"a",@progbits
	.globl	command_line_arguments.command_line_arguments..init0..f
	.p2align	3
command_line_arguments.command_line_arguments..init0..f:
	.quad	command_line_arguments.command_line_arguments..init0
	.size	command_line_arguments.command_line_arguments..init0..f, 8

	.type	command_line_arguments.SetLogger..f,@object
	.section	.rodata.command_line_arguments.SetLogger..f,"a",@progbits
	.globl	command_line_arguments.SetLogger..f
	.p2align	3
command_line_arguments.SetLogger..f:
	.quad	command_line_arguments.SetLogger
	.size	command_line_arguments.SetLogger..f, 8

	.type	command_line_arguments.DefaultLogger..d,@object
	.section	.rodata.command_line_arguments.DefaultLogger..d,"a",@progbits
	.globl	command_line_arguments.DefaultLogger..d
	.p2align	4
command_line_arguments.DefaultLogger..d:
	.quad	0
	.quad	0
	.long	3280394543
	.byte	153
	.byte	1
	.byte	1
	.zero	1
	.quad	runtime.memhash0..f
	.quad	runtime.memequal0..f
	.quad	0
	.quad	go..C34
	.quad	go..C38
	.quad	type...1command_line_arguments.DefaultLogger
	.quad	go..C47
	.quad	0
	.quad	0
	.size	command_line_arguments.DefaultLogger..d, 96

	.type	.Lconst.15,@object
	.section	.rodata..Lconst.15,"a",@progbits
.Lconst.15:
	.asciz	"\tcommand_line_arguments\tlogging.DefaultLogger"
	.size	.Lconst.15, 46

	.type	go..C34,@object
	.section	.rodata.go..C34,"a",@progbits
	.p2align	3
go..C34:
	.quad	.Lconst.15
	.quad	45
	.size	go..C34, 16

	.type	.Lconst.16,@object
	.section	.rodata..Lconst.16,"a",@progbits
.Lconst.16:
	.asciz	"DefaultLogger"
	.size	.Lconst.16, 14

	.type	go..C35,@object
	.section	.rodata.go..C35,"a",@progbits
	.p2align	3
go..C35:
	.quad	.Lconst.16
	.quad	13
	.size	go..C35, 16

	.type	go..C36,@object
	.section	.rodata.go..C36,"a",@progbits
	.p2align	3
go..C36:
	.quad	.Lconst.11
	.quad	22
	.size	go..C36, 16

	.type	go..C37,@object
	.section	.bss.go..C37,"aw",@nobits
	.p2align	4
go..C37:
	.zero	40
	.size	go..C37, 40

	.type	go..C38,@object
	.section	.rodata.go..C38,"a",@progbits
	.p2align	4
go..C38:
	.quad	go..C35
	.quad	go..C36
	.quad	go..C37
	.quad	0
	.quad	0
	.size	go..C38, 40

	.type	type...1command_line_arguments.DefaultLogger,@object
	.section	.rodata.type...1command_line_arguments.DefaultLogger,"aG",@progbits,type...1command_line_arguments.DefaultLogger,comdat
	.weak	type...1command_line_arguments.DefaultLogger
	.p2align	4
type...1command_line_arguments.DefaultLogger:
	.quad	8
	.quad	8
	.long	946705145
	.byte	54
	.byte	8
	.byte	8
	.zero	1
	.quad	runtime.memhash64..f
	.quad	runtime.memequal64..f
	.quad	gcbits..ba
	.quad	go..C39
	.quad	go..C45
	.quad	type...1.1command_line_arguments.DefaultLogger
	.quad	command_line_arguments.DefaultLogger..d
	.size	type...1command_line_arguments.DefaultLogger, 80

	.type	.Lconst.17,@object
	.section	.rodata..Lconst.17,"a",@progbits
.Lconst.17:
	.asciz	"*\tcommand_line_arguments\tlogging.DefaultLogger"
	.size	.Lconst.17, 47

	.type	go..C39,@object
	.section	.rodata.go..C39,"a",@progbits
	.p2align	3
go..C39:
	.quad	.Lconst.17
	.quad	46
	.size	go..C39, 16

	.type	go..C40,@object
	.section	.rodata.go..C40,"a",@progbits
	.p2align	3
go..C40:
	.quad	.Lconst.1
	.quad	6
	.size	go..C40, 16

	.type	type..func.8.1command_line_arguments.DefaultLogger.3string.3.6.7interface.4.5.9.8.9,@object
	.section	.rodata.type..func.8.1command_line_arguments.DefaultLogger.3string.3.6.7interface.4.5.9.8.9,"aG",@progbits,type..func.8.1command_line_arguments.DefaultLogger.3string.3.6.7interface.4.5.9.8.9,comdat
	.weak	type..func.8.1command_line_arguments.DefaultLogger.3string.3.6.7interface.4.5.9.8.9
	.p2align	4
type..func.8.1command_line_arguments.DefaultLogger.3string.3.6.7interface.4.5.9.8.9:
	.quad	8
	.quad	8
	.long	1145836712
	.byte	19
	.byte	8
	.byte	8
	.zero	1
	.quad	0
	.quad	0
	.quad	gcbits..ba
	.quad	go..C41
	.quad	0
	.quad	0
	.byte	0
	.zero	7
	.quad	go..C42
	.quad	3
	.quad	3
	.quad	go..C43
	.quad	0
	.quad	0
	.size	type..func.8.1command_line_arguments.DefaultLogger.3string.3.6.7interface.4.5.9.8.9, 128

	.type	.Lconst.18,@object
	.section	.rodata..Lconst.18,"a",@progbits
.Lconst.18:
	.asciz	"func(*\tcommand_line_arguments\tlogging.DefaultLogger, string, []interface {})"
	.size	.Lconst.18, 77

	.type	go..C41,@object
	.section	.rodata.go..C41,"a",@progbits
	.p2align	3
go..C41:
	.quad	.Lconst.18
	.quad	76
	.size	go..C41, 16

	.type	go..C42,@object
	.section	.data.go..C42,"aw",@progbits
	.p2align	4
go..C42:
	.quad	type...1command_line_arguments.DefaultLogger
	.quad	string..d
	.quad	type...6.7interface.4.5
	.size	go..C42, 24

	.type	go..C43,@object
	.section	.bss.go..C43,"aw",@nobits
	.p2align	3
go..C43:
	.zero	8
	.size	go..C43, 8

	.type	go..C44,@object
	.section	.data.go..C44,"aw",@progbits
	.p2align	4
go..C44:
	.quad	go..C40
	.quad	0
	.quad	type..func.8string.3.3.3.3.6.7interface.4.5.9.8.9
	.quad	type..func.8.1command_line_arguments.DefaultLogger.3string.3.6.7interface.4.5.9.8.9
	.quad	command_line_arguments.DefaultLogger.Printf
	.size	go..C44, 40

	.type	go..C45,@object
	.section	.rodata.go..C45,"a",@progbits
	.p2align	4
go..C45:
	.quad	0
	.quad	0
	.quad	go..C44
	.quad	1
	.quad	1
	.size	go..C45, 40

	.type	type...1.1command_line_arguments.DefaultLogger,@object
	.section	.rodata.type...1.1command_line_arguments.DefaultLogger,"aG",@progbits,type...1.1command_line_arguments.DefaultLogger,comdat
	.weak	type...1.1command_line_arguments.DefaultLogger
	.p2align	4
type...1.1command_line_arguments.DefaultLogger:
	.quad	8
	.quad	8
	.long	2262380441
	.byte	54
	.byte	8
	.byte	8
	.zero	1
	.quad	runtime.memhash64..f
	.quad	runtime.memequal64..f
	.quad	gcbits..ba
	.quad	go..C46
	.quad	0
	.quad	0
	.quad	type...1command_line_arguments.DefaultLogger
	.size	type...1.1command_line_arguments.DefaultLogger, 80

	.type	.Lconst.19,@object
	.section	.rodata..Lconst.19,"a",@progbits
.Lconst.19:
	.asciz	"**\tcommand_line_arguments\tlogging.DefaultLogger"
	.size	.Lconst.19, 48

	.type	go..C46,@object
	.section	.rodata.go..C46,"a",@progbits
	.p2align	3
go..C46:
	.quad	.Lconst.19
	.quad	47
	.size	go..C46, 16

	.type	go..C47,@object
	.section	.bss.go..C47,"aw",@nobits
	.p2align	4
go..C47:
	.zero	40
	.size	go..C47, 40

	.type	gcbits..ha,@object
	.section	.rodata.gcbits..ha,"aG",@progbits,gcbits..ha,comdat
	.weak	gcbits..ha
gcbits..ha:
	.byte	7
	.size	gcbits..ha, 1

	.type	gcbits..Ga,@object
	.section	.rodata.gcbits..Ga,"aG",@progbits,gcbits..Ga,comdat
	.weak	gcbits..Ga
gcbits..Ga:
	.byte	31
	.size	gcbits..Ga, 1

	.type	go..C0,@object
	.section	.data.go..C0,"aw",@progbits
	.p2align	4
go..C0:
	.quad	0
	.quad	7
	.quad	command_line_arguments.Logger
	.quad	16
	.quad	16
	.quad	gcbits..da
	.quad	go..C12
	.quad	16
	.quad	16
	.quad	gcbits..da
	.quad	go..C15
	.quad	24
	.quad	24
	.quad	gcbits..ha
	.quad	go..C17
	.quad	40
	.quad	40
	.quad	gcbits..Ga
	.quad	go..C33
	.quad	24
	.quad	24
	.quad	gcbits..ha
	.quad	go..C42
	.quad	24
	.quad	24
	.quad	gcbits..ha
	.quad	go..C44
	.quad	40
	.quad	40
	.quad	gcbits..Ga
	.size	go..C0, 240

	.section	".note.GNU-split-stack","",@progbits
	.section	".note.GNU-stack","",@progbits